; Listing generated by Microsoft (R) Optimizing Compiler Version 19.28.29914.0 

	TITLE	E:\Docs\Coding_Projects\C++\Computer Graphics\Marching Cubes\MarchingCubes\Debug\MarchingCubes.obj
	.686P
	.XMM
	include listing.inc
	.model	flat

INCLUDELIB LIBCMTD
INCLUDELIB OLDNAMES

PUBLIC	?edgeTable@@3PAHA				; edgeTable
PUBLIC	?triTable@@3PAY0BA@DA				; triTable
_DATA	SEGMENT
?edgeTable@@3PAHA DD 00H				; edgeTable
	DD	0109H
	DD	0203H
	DD	030aH
	DD	0406H
	DD	050fH
	DD	0605H
	DD	070cH
	DD	080cH
	DD	0905H
	DD	0a0fH
	DD	0b06H
	DD	0c0aH
	DD	0d03H
	DD	0e09H
	DD	0f00H
	DD	0190H
	DD	099H
	DD	0393H
	DD	029aH
	DD	0596H
	DD	049fH
	DD	0795H
	DD	069cH
	DD	099cH
	DD	0895H
	DD	0b9fH
	DD	0a96H
	DD	0d9aH
	DD	0c93H
	DD	0f99H
	DD	0e90H
	DD	0230H
	DD	0339H
	DD	033H
	DD	013aH
	DD	0636H
	DD	073fH
	DD	0435H
	DD	053cH
	DD	0a3cH
	DD	0b35H
	DD	083fH
	DD	0936H
	DD	0e3aH
	DD	0f33H
	DD	0c39H
	DD	0d30H
	DD	03a0H
	DD	02a9H
	DD	01a3H
	DD	0aaH
	DD	07a6H
	DD	06afH
	DD	05a5H
	DD	04acH
	DD	0bacH
	DD	0aa5H
	DD	09afH
	DD	08a6H
	DD	0faaH
	DD	0ea3H
	DD	0da9H
	DD	0ca0H
	DD	0460H
	DD	0569H
	DD	0663H
	DD	076aH
	DD	066H
	DD	016fH
	DD	0265H
	DD	036cH
	DD	0c6cH
	DD	0d65H
	DD	0e6fH
	DD	0f66H
	DD	086aH
	DD	0963H
	DD	0a69H
	DD	0b60H
	DD	05f0H
	DD	04f9H
	DD	07f3H
	DD	06faH
	DD	01f6H
	DD	0ffH
	DD	03f5H
	DD	02fcH
	DD	0dfcH
	DD	0cf5H
	DD	0fffH
	DD	0ef6H
	DD	09faH
	DD	08f3H
	DD	0bf9H
	DD	0af0H
	DD	0650H
	DD	0759H
	DD	0453H
	DD	055aH
	DD	0256H
	DD	035fH
	DD	055H
	DD	015cH
	DD	0e5cH
	DD	0f55H
	DD	0c5fH
	DD	0d56H
	DD	0a5aH
	DD	0b53H
	DD	0859H
	DD	0950H
	DD	07c0H
	DD	06c9H
	DD	05c3H
	DD	04caH
	DD	03c6H
	DD	02cfH
	DD	01c5H
	DD	0ccH
	DD	0fccH
	DD	0ec5H
	DD	0dcfH
	DD	0cc6H
	DD	0bcaH
	DD	0ac3H
	DD	09c9H
	DD	08c0H
	DD	08c0H
	DD	09c9H
	DD	0ac3H
	DD	0bcaH
	DD	0cc6H
	DD	0dcfH
	DD	0ec5H
	DD	0fccH
	DD	0ccH
	DD	01c5H
	DD	02cfH
	DD	03c6H
	DD	04caH
	DD	05c3H
	DD	06c9H
	DD	07c0H
	DD	0950H
	DD	0859H
	DD	0b53H
	DD	0a5aH
	DD	0d56H
	DD	0c5fH
	DD	0f55H
	DD	0e5cH
	DD	015cH
	DD	055H
	DD	035fH
	DD	0256H
	DD	055aH
	DD	0453H
	DD	0759H
	DD	0650H
	DD	0af0H
	DD	0bf9H
	DD	08f3H
	DD	09faH
	DD	0ef6H
	DD	0fffH
	DD	0cf5H
	DD	0dfcH
	DD	02fcH
	DD	03f5H
	DD	0ffH
	DD	01f6H
	DD	06faH
	DD	07f3H
	DD	04f9H
	DD	05f0H
	DD	0b60H
	DD	0a69H
	DD	0963H
	DD	086aH
	DD	0f66H
	DD	0e6fH
	DD	0d65H
	DD	0c6cH
	DD	036cH
	DD	0265H
	DD	016fH
	DD	066H
	DD	076aH
	DD	0663H
	DD	0569H
	DD	0460H
	DD	0ca0H
	DD	0da9H
	DD	0ea3H
	DD	0faaH
	DD	08a6H
	DD	09afH
	DD	0aa5H
	DD	0bacH
	DD	04acH
	DD	05a5H
	DD	06afH
	DD	07a6H
	DD	0aaH
	DD	01a3H
	DD	02a9H
	DD	03a0H
	DD	0d30H
	DD	0c39H
	DD	0f33H
	DD	0e3aH
	DD	0936H
	DD	083fH
	DD	0b35H
	DD	0a3cH
	DD	053cH
	DD	0435H
	DD	073fH
	DD	0636H
	DD	013aH
	DD	033H
	DD	0339H
	DD	0230H
	DD	0e90H
	DD	0f99H
	DD	0c93H
	DD	0d9aH
	DD	0a96H
	DD	0b9fH
	DD	0895H
	DD	099cH
	DD	069cH
	DD	0795H
	DD	049fH
	DD	0596H
	DD	029aH
	DD	0393H
	DD	099H
	DD	0190H
	DD	0f00H
	DD	0e09H
	DD	0d03H
	DD	0c0aH
	DD	0b06H
	DD	0a0fH
	DD	0905H
	DD	080cH
	DD	070cH
	DD	0605H
	DD	050fH
	DD	0406H
	DD	030aH
	DD	0203H
	DD	0109H
	DD	00H
?triTable@@3PAY0BA@DA DB 0ffH				; triTable
	DB	0ffH
	DB	0ffH
	DB	0ffH
	DB	0ffH
	DB	0ffH
	DB	0ffH
	DB	0ffH
	DB	0ffH
	DB	0ffH
	DB	0ffH
	DB	0ffH
	DB	0ffH
	DB	0ffH
	DB	0ffH
	DB	0ffH
	DB	00H
	DB	08H
	DB	03H
	DB	0ffH
	DB	0ffH
	DB	0ffH
	DB	0ffH
	DB	0ffH
	DB	0ffH
	DB	0ffH
	DB	0ffH
	DB	0ffH
	DB	0ffH
	DB	0ffH
	DB	0ffH
	DB	0ffH
	DB	00H
	DB	01H
	DB	09H
	DB	0ffH
	DB	0ffH
	DB	0ffH
	DB	0ffH
	DB	0ffH
	DB	0ffH
	DB	0ffH
	DB	0ffH
	DB	0ffH
	DB	0ffH
	DB	0ffH
	DB	0ffH
	DB	0ffH
	DB	01H
	DB	08H
	DB	03H
	DB	09H
	DB	08H
	DB	01H
	DB	0ffH
	DB	0ffH
	DB	0ffH
	DB	0ffH
	DB	0ffH
	DB	0ffH
	DB	0ffH
	DB	0ffH
	DB	0ffH
	DB	0ffH
	DB	01H
	DB	02H
	DB	0aH
	DB	0ffH
	DB	0ffH
	DB	0ffH
	DB	0ffH
	DB	0ffH
	DB	0ffH
	DB	0ffH
	DB	0ffH
	DB	0ffH
	DB	0ffH
	DB	0ffH
	DB	0ffH
	DB	0ffH
	DB	00H
	DB	08H
	DB	03H
	DB	01H
	DB	02H
	DB	0aH
	DB	0ffH
	DB	0ffH
	DB	0ffH
	DB	0ffH
	DB	0ffH
	DB	0ffH
	DB	0ffH
	DB	0ffH
	DB	0ffH
	DB	0ffH
	DB	09H
	DB	02H
	DB	0aH
	DB	00H
	DB	02H
	DB	09H
	DB	0ffH
	DB	0ffH
	DB	0ffH
	DB	0ffH
	DB	0ffH
	DB	0ffH
	DB	0ffH
	DB	0ffH
	DB	0ffH
	DB	0ffH
	DB	02H
	DB	08H
	DB	03H
	DB	02H
	DB	0aH
	DB	08H
	DB	0aH
	DB	09H
	DB	08H
	DB	0ffH
	DB	0ffH
	DB	0ffH
	DB	0ffH
	DB	0ffH
	DB	0ffH
	DB	0ffH
	DB	03H
	DB	0bH
	DB	02H
	DB	0ffH
	DB	0ffH
	DB	0ffH
	DB	0ffH
	DB	0ffH
	DB	0ffH
	DB	0ffH
	DB	0ffH
	DB	0ffH
	DB	0ffH
	DB	0ffH
	DB	0ffH
	DB	0ffH
	DB	00H
	DB	0bH
	DB	02H
	DB	08H
	DB	0bH
	DB	00H
	DB	0ffH
	DB	0ffH
	DB	0ffH
	DB	0ffH
	DB	0ffH
	DB	0ffH
	DB	0ffH
	DB	0ffH
	DB	0ffH
	DB	0ffH
	DB	01H
	DB	09H
	DB	00H
	DB	02H
	DB	03H
	DB	0bH
	DB	0ffH
	DB	0ffH
	DB	0ffH
	DB	0ffH
	DB	0ffH
	DB	0ffH
	DB	0ffH
	DB	0ffH
	DB	0ffH
	DB	0ffH
	DB	01H
	DB	0bH
	DB	02H
	DB	01H
	DB	09H
	DB	0bH
	DB	09H
	DB	08H
	DB	0bH
	DB	0ffH
	DB	0ffH
	DB	0ffH
	DB	0ffH
	DB	0ffH
	DB	0ffH
	DB	0ffH
	DB	03H
	DB	0aH
	DB	01H
	DB	0bH
	DB	0aH
	DB	03H
	DB	0ffH
	DB	0ffH
	DB	0ffH
	DB	0ffH
	DB	0ffH
	DB	0ffH
	DB	0ffH
	DB	0ffH
	DB	0ffH
	DB	0ffH
	DB	00H
	DB	0aH
	DB	01H
	DB	00H
	DB	08H
	DB	0aH
	DB	08H
	DB	0bH
	DB	0aH
	DB	0ffH
	DB	0ffH
	DB	0ffH
	DB	0ffH
	DB	0ffH
	DB	0ffH
	DB	0ffH
	DB	03H
	DB	09H
	DB	00H
	DB	03H
	DB	0bH
	DB	09H
	DB	0bH
	DB	0aH
	DB	09H
	DB	0ffH
	DB	0ffH
	DB	0ffH
	DB	0ffH
	DB	0ffH
	DB	0ffH
	DB	0ffH
	DB	09H
	DB	08H
	DB	0aH
	DB	0aH
	DB	08H
	DB	0bH
	DB	0ffH
	DB	0ffH
	DB	0ffH
	DB	0ffH
	DB	0ffH
	DB	0ffH
	DB	0ffH
	DB	0ffH
	DB	0ffH
	DB	0ffH
	DB	04H
	DB	07H
	DB	08H
	DB	0ffH
	DB	0ffH
	DB	0ffH
	DB	0ffH
	DB	0ffH
	DB	0ffH
	DB	0ffH
	DB	0ffH
	DB	0ffH
	DB	0ffH
	DB	0ffH
	DB	0ffH
	DB	0ffH
	DB	04H
	DB	03H
	DB	00H
	DB	07H
	DB	03H
	DB	04H
	DB	0ffH
	DB	0ffH
	DB	0ffH
	DB	0ffH
	DB	0ffH
	DB	0ffH
	DB	0ffH
	DB	0ffH
	DB	0ffH
	DB	0ffH
	DB	00H
	DB	01H
	DB	09H
	DB	08H
	DB	04H
	DB	07H
	DB	0ffH
	DB	0ffH
	DB	0ffH
	DB	0ffH
	DB	0ffH
	DB	0ffH
	DB	0ffH
	DB	0ffH
	DB	0ffH
	DB	0ffH
	DB	04H
	DB	01H
	DB	09H
	DB	04H
	DB	07H
	DB	01H
	DB	07H
	DB	03H
	DB	01H
	DB	0ffH
	DB	0ffH
	DB	0ffH
	DB	0ffH
	DB	0ffH
	DB	0ffH
	DB	0ffH
	DB	01H
	DB	02H
	DB	0aH
	DB	08H
	DB	04H
	DB	07H
	DB	0ffH
	DB	0ffH
	DB	0ffH
	DB	0ffH
	DB	0ffH
	DB	0ffH
	DB	0ffH
	DB	0ffH
	DB	0ffH
	DB	0ffH
	DB	03H
	DB	04H
	DB	07H
	DB	03H
	DB	00H
	DB	04H
	DB	01H
	DB	02H
	DB	0aH
	DB	0ffH
	DB	0ffH
	DB	0ffH
	DB	0ffH
	DB	0ffH
	DB	0ffH
	DB	0ffH
	DB	09H
	DB	02H
	DB	0aH
	DB	09H
	DB	00H
	DB	02H
	DB	08H
	DB	04H
	DB	07H
	DB	0ffH
	DB	0ffH
	DB	0ffH
	DB	0ffH
	DB	0ffH
	DB	0ffH
	DB	0ffH
	DB	02H
	DB	0aH
	DB	09H
	DB	02H
	DB	09H
	DB	07H
	DB	02H
	DB	07H
	DB	03H
	DB	07H
	DB	09H
	DB	04H
	DB	0ffH
	DB	0ffH
	DB	0ffH
	DB	0ffH
	DB	08H
	DB	04H
	DB	07H
	DB	03H
	DB	0bH
	DB	02H
	DB	0ffH
	DB	0ffH
	DB	0ffH
	DB	0ffH
	DB	0ffH
	DB	0ffH
	DB	0ffH
	DB	0ffH
	DB	0ffH
	DB	0ffH
	DB	0bH
	DB	04H
	DB	07H
	DB	0bH
	DB	02H
	DB	04H
	DB	02H
	DB	00H
	DB	04H
	DB	0ffH
	DB	0ffH
	DB	0ffH
	DB	0ffH
	DB	0ffH
	DB	0ffH
	DB	0ffH
	DB	09H
	DB	00H
	DB	01H
	DB	08H
	DB	04H
	DB	07H
	DB	02H
	DB	03H
	DB	0bH
	DB	0ffH
	DB	0ffH
	DB	0ffH
	DB	0ffH
	DB	0ffH
	DB	0ffH
	DB	0ffH
	DB	04H
	DB	07H
	DB	0bH
	DB	09H
	DB	04H
	DB	0bH
	DB	09H
	DB	0bH
	DB	02H
	DB	09H
	DB	02H
	DB	01H
	DB	0ffH
	DB	0ffH
	DB	0ffH
	DB	0ffH
	DB	03H
	DB	0aH
	DB	01H
	DB	03H
	DB	0bH
	DB	0aH
	DB	07H
	DB	08H
	DB	04H
	DB	0ffH
	DB	0ffH
	DB	0ffH
	DB	0ffH
	DB	0ffH
	DB	0ffH
	DB	0ffH
	DB	01H
	DB	0bH
	DB	0aH
	DB	01H
	DB	04H
	DB	0bH
	DB	01H
	DB	00H
	DB	04H
	DB	07H
	DB	0bH
	DB	04H
	DB	0ffH
	DB	0ffH
	DB	0ffH
	DB	0ffH
	DB	04H
	DB	07H
	DB	08H
	DB	09H
	DB	00H
	DB	0bH
	DB	09H
	DB	0bH
	DB	0aH
	DB	0bH
	DB	00H
	DB	03H
	DB	0ffH
	DB	0ffH
	DB	0ffH
	DB	0ffH
	DB	04H
	DB	07H
	DB	0bH
	DB	04H
	DB	0bH
	DB	09H
	DB	09H
	DB	0bH
	DB	0aH
	DB	0ffH
	DB	0ffH
	DB	0ffH
	DB	0ffH
	DB	0ffH
	DB	0ffH
	DB	0ffH
	DB	09H
	DB	05H
	DB	04H
	DB	0ffH
	DB	0ffH
	DB	0ffH
	DB	0ffH
	DB	0ffH
	DB	0ffH
	DB	0ffH
	DB	0ffH
	DB	0ffH
	DB	0ffH
	DB	0ffH
	DB	0ffH
	DB	0ffH
	DB	09H
	DB	05H
	DB	04H
	DB	00H
	DB	08H
	DB	03H
	DB	0ffH
	DB	0ffH
	DB	0ffH
	DB	0ffH
	DB	0ffH
	DB	0ffH
	DB	0ffH
	DB	0ffH
	DB	0ffH
	DB	0ffH
	DB	00H
	DB	05H
	DB	04H
	DB	01H
	DB	05H
	DB	00H
	DB	0ffH
	DB	0ffH
	DB	0ffH
	DB	0ffH
	DB	0ffH
	DB	0ffH
	DB	0ffH
	DB	0ffH
	DB	0ffH
	DB	0ffH
	DB	08H
	DB	05H
	DB	04H
	DB	08H
	DB	03H
	DB	05H
	DB	03H
	DB	01H
	DB	05H
	DB	0ffH
	DB	0ffH
	DB	0ffH
	DB	0ffH
	DB	0ffH
	DB	0ffH
	DB	0ffH
	DB	01H
	DB	02H
	DB	0aH
	DB	09H
	DB	05H
	DB	04H
	DB	0ffH
	DB	0ffH
	DB	0ffH
	DB	0ffH
	DB	0ffH
	DB	0ffH
	DB	0ffH
	DB	0ffH
	DB	0ffH
	DB	0ffH
	DB	03H
	DB	00H
	DB	08H
	DB	01H
	DB	02H
	DB	0aH
	DB	04H
	DB	09H
	DB	05H
	DB	0ffH
	DB	0ffH
	DB	0ffH
	DB	0ffH
	DB	0ffH
	DB	0ffH
	DB	0ffH
	DB	05H
	DB	02H
	DB	0aH
	DB	05H
	DB	04H
	DB	02H
	DB	04H
	DB	00H
	DB	02H
	DB	0ffH
	DB	0ffH
	DB	0ffH
	DB	0ffH
	DB	0ffH
	DB	0ffH
	DB	0ffH
	DB	02H
	DB	0aH
	DB	05H
	DB	03H
	DB	02H
	DB	05H
	DB	03H
	DB	05H
	DB	04H
	DB	03H
	DB	04H
	DB	08H
	DB	0ffH
	DB	0ffH
	DB	0ffH
	DB	0ffH
	DB	09H
	DB	05H
	DB	04H
	DB	02H
	DB	03H
	DB	0bH
	DB	0ffH
	DB	0ffH
	DB	0ffH
	DB	0ffH
	DB	0ffH
	DB	0ffH
	DB	0ffH
	DB	0ffH
	DB	0ffH
	DB	0ffH
	DB	00H
	DB	0bH
	DB	02H
	DB	00H
	DB	08H
	DB	0bH
	DB	04H
	DB	09H
	DB	05H
	DB	0ffH
	DB	0ffH
	DB	0ffH
	DB	0ffH
	DB	0ffH
	DB	0ffH
	DB	0ffH
	DB	00H
	DB	05H
	DB	04H
	DB	00H
	DB	01H
	DB	05H
	DB	02H
	DB	03H
	DB	0bH
	DB	0ffH
	DB	0ffH
	DB	0ffH
	DB	0ffH
	DB	0ffH
	DB	0ffH
	DB	0ffH
	DB	02H
	DB	01H
	DB	05H
	DB	02H
	DB	05H
	DB	08H
	DB	02H
	DB	08H
	DB	0bH
	DB	04H
	DB	08H
	DB	05H
	DB	0ffH
	DB	0ffH
	DB	0ffH
	DB	0ffH
	DB	0aH
	DB	03H
	DB	0bH
	DB	0aH
	DB	01H
	DB	03H
	DB	09H
	DB	05H
	DB	04H
	DB	0ffH
	DB	0ffH
	DB	0ffH
	DB	0ffH
	DB	0ffH
	DB	0ffH
	DB	0ffH
	DB	04H
	DB	09H
	DB	05H
	DB	00H
	DB	08H
	DB	01H
	DB	08H
	DB	0aH
	DB	01H
	DB	08H
	DB	0bH
	DB	0aH
	DB	0ffH
	DB	0ffH
	DB	0ffH
	DB	0ffH
	DB	05H
	DB	04H
	DB	00H
	DB	05H
	DB	00H
	DB	0bH
	DB	05H
	DB	0bH
	DB	0aH
	DB	0bH
	DB	00H
	DB	03H
	DB	0ffH
	DB	0ffH
	DB	0ffH
	DB	0ffH
	DB	05H
	DB	04H
	DB	08H
	DB	05H
	DB	08H
	DB	0aH
	DB	0aH
	DB	08H
	DB	0bH
	DB	0ffH
	DB	0ffH
	DB	0ffH
	DB	0ffH
	DB	0ffH
	DB	0ffH
	DB	0ffH
	DB	09H
	DB	07H
	DB	08H
	DB	05H
	DB	07H
	DB	09H
	DB	0ffH
	DB	0ffH
	DB	0ffH
	DB	0ffH
	DB	0ffH
	DB	0ffH
	DB	0ffH
	DB	0ffH
	DB	0ffH
	DB	0ffH
	DB	09H
	DB	03H
	DB	00H
	DB	09H
	DB	05H
	DB	03H
	DB	05H
	DB	07H
	DB	03H
	DB	0ffH
	DB	0ffH
	DB	0ffH
	DB	0ffH
	DB	0ffH
	DB	0ffH
	DB	0ffH
	DB	00H
	DB	07H
	DB	08H
	DB	00H
	DB	01H
	DB	07H
	DB	01H
	DB	05H
	DB	07H
	DB	0ffH
	DB	0ffH
	DB	0ffH
	DB	0ffH
	DB	0ffH
	DB	0ffH
	DB	0ffH
	DB	01H
	DB	05H
	DB	03H
	DB	03H
	DB	05H
	DB	07H
	DB	0ffH
	DB	0ffH
	DB	0ffH
	DB	0ffH
	DB	0ffH
	DB	0ffH
	DB	0ffH
	DB	0ffH
	DB	0ffH
	DB	0ffH
	DB	09H
	DB	07H
	DB	08H
	DB	09H
	DB	05H
	DB	07H
	DB	0aH
	DB	01H
	DB	02H
	DB	0ffH
	DB	0ffH
	DB	0ffH
	DB	0ffH
	DB	0ffH
	DB	0ffH
	DB	0ffH
	DB	0aH
	DB	01H
	DB	02H
	DB	09H
	DB	05H
	DB	00H
	DB	05H
	DB	03H
	DB	00H
	DB	05H
	DB	07H
	DB	03H
	DB	0ffH
	DB	0ffH
	DB	0ffH
	DB	0ffH
	DB	08H
	DB	00H
	DB	02H
	DB	08H
	DB	02H
	DB	05H
	DB	08H
	DB	05H
	DB	07H
	DB	0aH
	DB	05H
	DB	02H
	DB	0ffH
	DB	0ffH
	DB	0ffH
	DB	0ffH
	DB	02H
	DB	0aH
	DB	05H
	DB	02H
	DB	05H
	DB	03H
	DB	03H
	DB	05H
	DB	07H
	DB	0ffH
	DB	0ffH
	DB	0ffH
	DB	0ffH
	DB	0ffH
	DB	0ffH
	DB	0ffH
	DB	07H
	DB	09H
	DB	05H
	DB	07H
	DB	08H
	DB	09H
	DB	03H
	DB	0bH
	DB	02H
	DB	0ffH
	DB	0ffH
	DB	0ffH
	DB	0ffH
	DB	0ffH
	DB	0ffH
	DB	0ffH
	DB	09H
	DB	05H
	DB	07H
	DB	09H
	DB	07H
	DB	02H
	DB	09H
	DB	02H
	DB	00H
	DB	02H
	DB	07H
	DB	0bH
	DB	0ffH
	DB	0ffH
	DB	0ffH
	DB	0ffH
	DB	02H
	DB	03H
	DB	0bH
	DB	00H
	DB	01H
	DB	08H
	DB	01H
	DB	07H
	DB	08H
	DB	01H
	DB	05H
	DB	07H
	DB	0ffH
	DB	0ffH
	DB	0ffH
	DB	0ffH
	DB	0bH
	DB	02H
	DB	01H
	DB	0bH
	DB	01H
	DB	07H
	DB	07H
	DB	01H
	DB	05H
	DB	0ffH
	DB	0ffH
	DB	0ffH
	DB	0ffH
	DB	0ffH
	DB	0ffH
	DB	0ffH
	DB	09H
	DB	05H
	DB	08H
	DB	08H
	DB	05H
	DB	07H
	DB	0aH
	DB	01H
	DB	03H
	DB	0aH
	DB	03H
	DB	0bH
	DB	0ffH
	DB	0ffH
	DB	0ffH
	DB	0ffH
	DB	05H
	DB	07H
	DB	00H
	DB	05H
	DB	00H
	DB	09H
	DB	07H
	DB	0bH
	DB	00H
	DB	01H
	DB	00H
	DB	0aH
	DB	0bH
	DB	0aH
	DB	00H
	DB	0ffH
	DB	0bH
	DB	0aH
	DB	00H
	DB	0bH
	DB	00H
	DB	03H
	DB	0aH
	DB	05H
	DB	00H
	DB	08H
	DB	00H
	DB	07H
	DB	05H
	DB	07H
	DB	00H
	DB	0ffH
	DB	0bH
	DB	0aH
	DB	05H
	DB	07H
	DB	0bH
	DB	05H
	DB	0ffH
	DB	0ffH
	DB	0ffH
	DB	0ffH
	DB	0ffH
	DB	0ffH
	DB	0ffH
	DB	0ffH
	DB	0ffH
	DB	0ffH
	DB	0aH
	DB	06H
	DB	05H
	DB	0ffH
	DB	0ffH
	DB	0ffH
	DB	0ffH
	DB	0ffH
	DB	0ffH
	DB	0ffH
	DB	0ffH
	DB	0ffH
	DB	0ffH
	DB	0ffH
	DB	0ffH
	DB	0ffH
	DB	00H
	DB	08H
	DB	03H
	DB	05H
	DB	0aH
	DB	06H
	DB	0ffH
	DB	0ffH
	DB	0ffH
	DB	0ffH
	DB	0ffH
	DB	0ffH
	DB	0ffH
	DB	0ffH
	DB	0ffH
	DB	0ffH
	DB	09H
	DB	00H
	DB	01H
	DB	05H
	DB	0aH
	DB	06H
	DB	0ffH
	DB	0ffH
	DB	0ffH
	DB	0ffH
	DB	0ffH
	DB	0ffH
	DB	0ffH
	DB	0ffH
	DB	0ffH
	DB	0ffH
	DB	01H
	DB	08H
	DB	03H
	DB	01H
	DB	09H
	DB	08H
	DB	05H
	DB	0aH
	DB	06H
	DB	0ffH
	DB	0ffH
	DB	0ffH
	DB	0ffH
	DB	0ffH
	DB	0ffH
	DB	0ffH
	DB	01H
	DB	06H
	DB	05H
	DB	02H
	DB	06H
	DB	01H
	DB	0ffH
	DB	0ffH
	DB	0ffH
	DB	0ffH
	DB	0ffH
	DB	0ffH
	DB	0ffH
	DB	0ffH
	DB	0ffH
	DB	0ffH
	DB	01H
	DB	06H
	DB	05H
	DB	01H
	DB	02H
	DB	06H
	DB	03H
	DB	00H
	DB	08H
	DB	0ffH
	DB	0ffH
	DB	0ffH
	DB	0ffH
	DB	0ffH
	DB	0ffH
	DB	0ffH
	DB	09H
	DB	06H
	DB	05H
	DB	09H
	DB	00H
	DB	06H
	DB	00H
	DB	02H
	DB	06H
	DB	0ffH
	DB	0ffH
	DB	0ffH
	DB	0ffH
	DB	0ffH
	DB	0ffH
	DB	0ffH
	DB	05H
	DB	09H
	DB	08H
	DB	05H
	DB	08H
	DB	02H
	DB	05H
	DB	02H
	DB	06H
	DB	03H
	DB	02H
	DB	08H
	DB	0ffH
	DB	0ffH
	DB	0ffH
	DB	0ffH
	DB	02H
	DB	03H
	DB	0bH
	DB	0aH
	DB	06H
	DB	05H
	DB	0ffH
	DB	0ffH
	DB	0ffH
	DB	0ffH
	DB	0ffH
	DB	0ffH
	DB	0ffH
	DB	0ffH
	DB	0ffH
	DB	0ffH
	DB	0bH
	DB	00H
	DB	08H
	DB	0bH
	DB	02H
	DB	00H
	DB	0aH
	DB	06H
	DB	05H
	DB	0ffH
	DB	0ffH
	DB	0ffH
	DB	0ffH
	DB	0ffH
	DB	0ffH
	DB	0ffH
	DB	00H
	DB	01H
	DB	09H
	DB	02H
	DB	03H
	DB	0bH
	DB	05H
	DB	0aH
	DB	06H
	DB	0ffH
	DB	0ffH
	DB	0ffH
	DB	0ffH
	DB	0ffH
	DB	0ffH
	DB	0ffH
	DB	05H
	DB	0aH
	DB	06H
	DB	01H
	DB	09H
	DB	02H
	DB	09H
	DB	0bH
	DB	02H
	DB	09H
	DB	08H
	DB	0bH
	DB	0ffH
	DB	0ffH
	DB	0ffH
	DB	0ffH
	DB	06H
	DB	03H
	DB	0bH
	DB	06H
	DB	05H
	DB	03H
	DB	05H
	DB	01H
	DB	03H
	DB	0ffH
	DB	0ffH
	DB	0ffH
	DB	0ffH
	DB	0ffH
	DB	0ffH
	DB	0ffH
	DB	00H
	DB	08H
	DB	0bH
	DB	00H
	DB	0bH
	DB	05H
	DB	00H
	DB	05H
	DB	01H
	DB	05H
	DB	0bH
	DB	06H
	DB	0ffH
	DB	0ffH
	DB	0ffH
	DB	0ffH
	DB	03H
	DB	0bH
	DB	06H
	DB	00H
	DB	03H
	DB	06H
	DB	00H
	DB	06H
	DB	05H
	DB	00H
	DB	05H
	DB	09H
	DB	0ffH
	DB	0ffH
	DB	0ffH
	DB	0ffH
	DB	06H
	DB	05H
	DB	09H
	DB	06H
	DB	09H
	DB	0bH
	DB	0bH
	DB	09H
	DB	08H
	DB	0ffH
	DB	0ffH
	DB	0ffH
	DB	0ffH
	DB	0ffH
	DB	0ffH
	DB	0ffH
	DB	05H
	DB	0aH
	DB	06H
	DB	04H
	DB	07H
	DB	08H
	DB	0ffH
	DB	0ffH
	DB	0ffH
	DB	0ffH
	DB	0ffH
	DB	0ffH
	DB	0ffH
	DB	0ffH
	DB	0ffH
	DB	0ffH
	DB	04H
	DB	03H
	DB	00H
	DB	04H
	DB	07H
	DB	03H
	DB	06H
	DB	05H
	DB	0aH
	DB	0ffH
	DB	0ffH
	DB	0ffH
	DB	0ffH
	DB	0ffH
	DB	0ffH
	DB	0ffH
	DB	01H
	DB	09H
	DB	00H
	DB	05H
	DB	0aH
	DB	06H
	DB	08H
	DB	04H
	DB	07H
	DB	0ffH
	DB	0ffH
	DB	0ffH
	DB	0ffH
	DB	0ffH
	DB	0ffH
	DB	0ffH
	DB	0aH
	DB	06H
	DB	05H
	DB	01H
	DB	09H
	DB	07H
	DB	01H
	DB	07H
	DB	03H
	DB	07H
	DB	09H
	DB	04H
	DB	0ffH
	DB	0ffH
	DB	0ffH
	DB	0ffH
	DB	06H
	DB	01H
	DB	02H
	DB	06H
	DB	05H
	DB	01H
	DB	04H
	DB	07H
	DB	08H
	DB	0ffH
	DB	0ffH
	DB	0ffH
	DB	0ffH
	DB	0ffH
	DB	0ffH
	DB	0ffH
	DB	01H
	DB	02H
	DB	05H
	DB	05H
	DB	02H
	DB	06H
	DB	03H
	DB	00H
	DB	04H
	DB	03H
	DB	04H
	DB	07H
	DB	0ffH
	DB	0ffH
	DB	0ffH
	DB	0ffH
	DB	08H
	DB	04H
	DB	07H
	DB	09H
	DB	00H
	DB	05H
	DB	00H
	DB	06H
	DB	05H
	DB	00H
	DB	02H
	DB	06H
	DB	0ffH
	DB	0ffH
	DB	0ffH
	DB	0ffH
	DB	07H
	DB	03H
	DB	09H
	DB	07H
	DB	09H
	DB	04H
	DB	03H
	DB	02H
	DB	09H
	DB	05H
	DB	09H
	DB	06H
	DB	02H
	DB	06H
	DB	09H
	DB	0ffH
	DB	03H
	DB	0bH
	DB	02H
	DB	07H
	DB	08H
	DB	04H
	DB	0aH
	DB	06H
	DB	05H
	DB	0ffH
	DB	0ffH
	DB	0ffH
	DB	0ffH
	DB	0ffH
	DB	0ffH
	DB	0ffH
	DB	05H
	DB	0aH
	DB	06H
	DB	04H
	DB	07H
	DB	02H
	DB	04H
	DB	02H
	DB	00H
	DB	02H
	DB	07H
	DB	0bH
	DB	0ffH
	DB	0ffH
	DB	0ffH
	DB	0ffH
	DB	00H
	DB	01H
	DB	09H
	DB	04H
	DB	07H
	DB	08H
	DB	02H
	DB	03H
	DB	0bH
	DB	05H
	DB	0aH
	DB	06H
	DB	0ffH
	DB	0ffH
	DB	0ffH
	DB	0ffH
	DB	09H
	DB	02H
	DB	01H
	DB	09H
	DB	0bH
	DB	02H
	DB	09H
	DB	04H
	DB	0bH
	DB	07H
	DB	0bH
	DB	04H
	DB	05H
	DB	0aH
	DB	06H
	DB	0ffH
	DB	08H
	DB	04H
	DB	07H
	DB	03H
	DB	0bH
	DB	05H
	DB	03H
	DB	05H
	DB	01H
	DB	05H
	DB	0bH
	DB	06H
	DB	0ffH
	DB	0ffH
	DB	0ffH
	DB	0ffH
	DB	05H
	DB	01H
	DB	0bH
	DB	05H
	DB	0bH
	DB	06H
	DB	01H
	DB	00H
	DB	0bH
	DB	07H
	DB	0bH
	DB	04H
	DB	00H
	DB	04H
	DB	0bH
	DB	0ffH
	DB	00H
	DB	05H
	DB	09H
	DB	00H
	DB	06H
	DB	05H
	DB	00H
	DB	03H
	DB	06H
	DB	0bH
	DB	06H
	DB	03H
	DB	08H
	DB	04H
	DB	07H
	DB	0ffH
	DB	06H
	DB	05H
	DB	09H
	DB	06H
	DB	09H
	DB	0bH
	DB	04H
	DB	07H
	DB	09H
	DB	07H
	DB	0bH
	DB	09H
	DB	0ffH
	DB	0ffH
	DB	0ffH
	DB	0ffH
	DB	0aH
	DB	04H
	DB	09H
	DB	06H
	DB	04H
	DB	0aH
	DB	0ffH
	DB	0ffH
	DB	0ffH
	DB	0ffH
	DB	0ffH
	DB	0ffH
	DB	0ffH
	DB	0ffH
	DB	0ffH
	DB	0ffH
	DB	04H
	DB	0aH
	DB	06H
	DB	04H
	DB	09H
	DB	0aH
	DB	00H
	DB	08H
	DB	03H
	DB	0ffH
	DB	0ffH
	DB	0ffH
	DB	0ffH
	DB	0ffH
	DB	0ffH
	DB	0ffH
	DB	0aH
	DB	00H
	DB	01H
	DB	0aH
	DB	06H
	DB	00H
	DB	06H
	DB	04H
	DB	00H
	DB	0ffH
	DB	0ffH
	DB	0ffH
	DB	0ffH
	DB	0ffH
	DB	0ffH
	DB	0ffH
	DB	08H
	DB	03H
	DB	01H
	DB	08H
	DB	01H
	DB	06H
	DB	08H
	DB	06H
	DB	04H
	DB	06H
	DB	01H
	DB	0aH
	DB	0ffH
	DB	0ffH
	DB	0ffH
	DB	0ffH
	DB	01H
	DB	04H
	DB	09H
	DB	01H
	DB	02H
	DB	04H
	DB	02H
	DB	06H
	DB	04H
	DB	0ffH
	DB	0ffH
	DB	0ffH
	DB	0ffH
	DB	0ffH
	DB	0ffH
	DB	0ffH
	DB	03H
	DB	00H
	DB	08H
	DB	01H
	DB	02H
	DB	09H
	DB	02H
	DB	04H
	DB	09H
	DB	02H
	DB	06H
	DB	04H
	DB	0ffH
	DB	0ffH
	DB	0ffH
	DB	0ffH
	DB	00H
	DB	02H
	DB	04H
	DB	04H
	DB	02H
	DB	06H
	DB	0ffH
	DB	0ffH
	DB	0ffH
	DB	0ffH
	DB	0ffH
	DB	0ffH
	DB	0ffH
	DB	0ffH
	DB	0ffH
	DB	0ffH
	DB	08H
	DB	03H
	DB	02H
	DB	08H
	DB	02H
	DB	04H
	DB	04H
	DB	02H
	DB	06H
	DB	0ffH
	DB	0ffH
	DB	0ffH
	DB	0ffH
	DB	0ffH
	DB	0ffH
	DB	0ffH
	DB	0aH
	DB	04H
	DB	09H
	DB	0aH
	DB	06H
	DB	04H
	DB	0bH
	DB	02H
	DB	03H
	DB	0ffH
	DB	0ffH
	DB	0ffH
	DB	0ffH
	DB	0ffH
	DB	0ffH
	DB	0ffH
	DB	00H
	DB	08H
	DB	02H
	DB	02H
	DB	08H
	DB	0bH
	DB	04H
	DB	09H
	DB	0aH
	DB	04H
	DB	0aH
	DB	06H
	DB	0ffH
	DB	0ffH
	DB	0ffH
	DB	0ffH
	DB	03H
	DB	0bH
	DB	02H
	DB	00H
	DB	01H
	DB	06H
	DB	00H
	DB	06H
	DB	04H
	DB	06H
	DB	01H
	DB	0aH
	DB	0ffH
	DB	0ffH
	DB	0ffH
	DB	0ffH
	DB	06H
	DB	04H
	DB	01H
	DB	06H
	DB	01H
	DB	0aH
	DB	04H
	DB	08H
	DB	01H
	DB	02H
	DB	01H
	DB	0bH
	DB	08H
	DB	0bH
	DB	01H
	DB	0ffH
	DB	09H
	DB	06H
	DB	04H
	DB	09H
	DB	03H
	DB	06H
	DB	09H
	DB	01H
	DB	03H
	DB	0bH
	DB	06H
	DB	03H
	DB	0ffH
	DB	0ffH
	DB	0ffH
	DB	0ffH
	DB	08H
	DB	0bH
	DB	01H
	DB	08H
	DB	01H
	DB	00H
	DB	0bH
	DB	06H
	DB	01H
	DB	09H
	DB	01H
	DB	04H
	DB	06H
	DB	04H
	DB	01H
	DB	0ffH
	DB	03H
	DB	0bH
	DB	06H
	DB	03H
	DB	06H
	DB	00H
	DB	00H
	DB	06H
	DB	04H
	DB	0ffH
	DB	0ffH
	DB	0ffH
	DB	0ffH
	DB	0ffH
	DB	0ffH
	DB	0ffH
	DB	06H
	DB	04H
	DB	08H
	DB	0bH
	DB	06H
	DB	08H
	DB	0ffH
	DB	0ffH
	DB	0ffH
	DB	0ffH
	DB	0ffH
	DB	0ffH
	DB	0ffH
	DB	0ffH
	DB	0ffH
	DB	0ffH
	DB	07H
	DB	0aH
	DB	06H
	DB	07H
	DB	08H
	DB	0aH
	DB	08H
	DB	09H
	DB	0aH
	DB	0ffH
	DB	0ffH
	DB	0ffH
	DB	0ffH
	DB	0ffH
	DB	0ffH
	DB	0ffH
	DB	00H
	DB	07H
	DB	03H
	DB	00H
	DB	0aH
	DB	07H
	DB	00H
	DB	09H
	DB	0aH
	DB	06H
	DB	07H
	DB	0aH
	DB	0ffH
	DB	0ffH
	DB	0ffH
	DB	0ffH
	DB	0aH
	DB	06H
	DB	07H
	DB	01H
	DB	0aH
	DB	07H
	DB	01H
	DB	07H
	DB	08H
	DB	01H
	DB	08H
	DB	00H
	DB	0ffH
	DB	0ffH
	DB	0ffH
	DB	0ffH
	DB	0aH
	DB	06H
	DB	07H
	DB	0aH
	DB	07H
	DB	01H
	DB	01H
	DB	07H
	DB	03H
	DB	0ffH
	DB	0ffH
	DB	0ffH
	DB	0ffH
	DB	0ffH
	DB	0ffH
	DB	0ffH
	DB	01H
	DB	02H
	DB	06H
	DB	01H
	DB	06H
	DB	08H
	DB	01H
	DB	08H
	DB	09H
	DB	08H
	DB	06H
	DB	07H
	DB	0ffH
	DB	0ffH
	DB	0ffH
	DB	0ffH
	DB	02H
	DB	06H
	DB	09H
	DB	02H
	DB	09H
	DB	01H
	DB	06H
	DB	07H
	DB	09H
	DB	00H
	DB	09H
	DB	03H
	DB	07H
	DB	03H
	DB	09H
	DB	0ffH
	DB	07H
	DB	08H
	DB	00H
	DB	07H
	DB	00H
	DB	06H
	DB	06H
	DB	00H
	DB	02H
	DB	0ffH
	DB	0ffH
	DB	0ffH
	DB	0ffH
	DB	0ffH
	DB	0ffH
	DB	0ffH
	DB	07H
	DB	03H
	DB	02H
	DB	06H
	DB	07H
	DB	02H
	DB	0ffH
	DB	0ffH
	DB	0ffH
	DB	0ffH
	DB	0ffH
	DB	0ffH
	DB	0ffH
	DB	0ffH
	DB	0ffH
	DB	0ffH
	DB	02H
	DB	03H
	DB	0bH
	DB	0aH
	DB	06H
	DB	08H
	DB	0aH
	DB	08H
	DB	09H
	DB	08H
	DB	06H
	DB	07H
	DB	0ffH
	DB	0ffH
	DB	0ffH
	DB	0ffH
	DB	02H
	DB	00H
	DB	07H
	DB	02H
	DB	07H
	DB	0bH
	DB	00H
	DB	09H
	DB	07H
	DB	06H
	DB	07H
	DB	0aH
	DB	09H
	DB	0aH
	DB	07H
	DB	0ffH
	DB	01H
	DB	08H
	DB	00H
	DB	01H
	DB	07H
	DB	08H
	DB	01H
	DB	0aH
	DB	07H
	DB	06H
	DB	07H
	DB	0aH
	DB	02H
	DB	03H
	DB	0bH
	DB	0ffH
	DB	0bH
	DB	02H
	DB	01H
	DB	0bH
	DB	01H
	DB	07H
	DB	0aH
	DB	06H
	DB	01H
	DB	06H
	DB	07H
	DB	01H
	DB	0ffH
	DB	0ffH
	DB	0ffH
	DB	0ffH
	DB	08H
	DB	09H
	DB	06H
	DB	08H
	DB	06H
	DB	07H
	DB	09H
	DB	01H
	DB	06H
	DB	0bH
	DB	06H
	DB	03H
	DB	01H
	DB	03H
	DB	06H
	DB	0ffH
	DB	00H
	DB	09H
	DB	01H
	DB	0bH
	DB	06H
	DB	07H
	DB	0ffH
	DB	0ffH
	DB	0ffH
	DB	0ffH
	DB	0ffH
	DB	0ffH
	DB	0ffH
	DB	0ffH
	DB	0ffH
	DB	0ffH
	DB	07H
	DB	08H
	DB	00H
	DB	07H
	DB	00H
	DB	06H
	DB	03H
	DB	0bH
	DB	00H
	DB	0bH
	DB	06H
	DB	00H
	DB	0ffH
	DB	0ffH
	DB	0ffH
	DB	0ffH
	DB	07H
	DB	0bH
	DB	06H
	DB	0ffH
	DB	0ffH
	DB	0ffH
	DB	0ffH
	DB	0ffH
	DB	0ffH
	DB	0ffH
	DB	0ffH
	DB	0ffH
	DB	0ffH
	DB	0ffH
	DB	0ffH
	DB	0ffH
	DB	07H
	DB	06H
	DB	0bH
	DB	0ffH
	DB	0ffH
	DB	0ffH
	DB	0ffH
	DB	0ffH
	DB	0ffH
	DB	0ffH
	DB	0ffH
	DB	0ffH
	DB	0ffH
	DB	0ffH
	DB	0ffH
	DB	0ffH
	DB	03H
	DB	00H
	DB	08H
	DB	0bH
	DB	07H
	DB	06H
	DB	0ffH
	DB	0ffH
	DB	0ffH
	DB	0ffH
	DB	0ffH
	DB	0ffH
	DB	0ffH
	DB	0ffH
	DB	0ffH
	DB	0ffH
	DB	00H
	DB	01H
	DB	09H
	DB	0bH
	DB	07H
	DB	06H
	DB	0ffH
	DB	0ffH
	DB	0ffH
	DB	0ffH
	DB	0ffH
	DB	0ffH
	DB	0ffH
	DB	0ffH
	DB	0ffH
	DB	0ffH
	DB	08H
	DB	01H
	DB	09H
	DB	08H
	DB	03H
	DB	01H
	DB	0bH
	DB	07H
	DB	06H
	DB	0ffH
	DB	0ffH
	DB	0ffH
	DB	0ffH
	DB	0ffH
	DB	0ffH
	DB	0ffH
	DB	0aH
	DB	01H
	DB	02H
	DB	06H
	DB	0bH
	DB	07H
	DB	0ffH
	DB	0ffH
	DB	0ffH
	DB	0ffH
	DB	0ffH
	DB	0ffH
	DB	0ffH
	DB	0ffH
	DB	0ffH
	DB	0ffH
	DB	01H
	DB	02H
	DB	0aH
	DB	03H
	DB	00H
	DB	08H
	DB	06H
	DB	0bH
	DB	07H
	DB	0ffH
	DB	0ffH
	DB	0ffH
	DB	0ffH
	DB	0ffH
	DB	0ffH
	DB	0ffH
	DB	02H
	DB	09H
	DB	00H
	DB	02H
	DB	0aH
	DB	09H
	DB	06H
	DB	0bH
	DB	07H
	DB	0ffH
	DB	0ffH
	DB	0ffH
	DB	0ffH
	DB	0ffH
	DB	0ffH
	DB	0ffH
	DB	06H
	DB	0bH
	DB	07H
	DB	02H
	DB	0aH
	DB	03H
	DB	0aH
	DB	08H
	DB	03H
	DB	0aH
	DB	09H
	DB	08H
	DB	0ffH
	DB	0ffH
	DB	0ffH
	DB	0ffH
	DB	07H
	DB	02H
	DB	03H
	DB	06H
	DB	02H
	DB	07H
	DB	0ffH
	DB	0ffH
	DB	0ffH
	DB	0ffH
	DB	0ffH
	DB	0ffH
	DB	0ffH
	DB	0ffH
	DB	0ffH
	DB	0ffH
	DB	07H
	DB	00H
	DB	08H
	DB	07H
	DB	06H
	DB	00H
	DB	06H
	DB	02H
	DB	00H
	DB	0ffH
	DB	0ffH
	DB	0ffH
	DB	0ffH
	DB	0ffH
	DB	0ffH
	DB	0ffH
	DB	02H
	DB	07H
	DB	06H
	DB	02H
	DB	03H
	DB	07H
	DB	00H
	DB	01H
	DB	09H
	DB	0ffH
	DB	0ffH
	DB	0ffH
	DB	0ffH
	DB	0ffH
	DB	0ffH
	DB	0ffH
	DB	01H
	DB	06H
	DB	02H
	DB	01H
	DB	08H
	DB	06H
	DB	01H
	DB	09H
	DB	08H
	DB	08H
	DB	07H
	DB	06H
	DB	0ffH
	DB	0ffH
	DB	0ffH
	DB	0ffH
	DB	0aH
	DB	07H
	DB	06H
	DB	0aH
	DB	01H
	DB	07H
	DB	01H
	DB	03H
	DB	07H
	DB	0ffH
	DB	0ffH
	DB	0ffH
	DB	0ffH
	DB	0ffH
	DB	0ffH
	DB	0ffH
	DB	0aH
	DB	07H
	DB	06H
	DB	01H
	DB	07H
	DB	0aH
	DB	01H
	DB	08H
	DB	07H
	DB	01H
	DB	00H
	DB	08H
	DB	0ffH
	DB	0ffH
	DB	0ffH
	DB	0ffH
	DB	00H
	DB	03H
	DB	07H
	DB	00H
	DB	07H
	DB	0aH
	DB	00H
	DB	0aH
	DB	09H
	DB	06H
	DB	0aH
	DB	07H
	DB	0ffH
	DB	0ffH
	DB	0ffH
	DB	0ffH
	DB	07H
	DB	06H
	DB	0aH
	DB	07H
	DB	0aH
	DB	08H
	DB	08H
	DB	0aH
	DB	09H
	DB	0ffH
	DB	0ffH
	DB	0ffH
	DB	0ffH
	DB	0ffH
	DB	0ffH
	DB	0ffH
	DB	06H
	DB	08H
	DB	04H
	DB	0bH
	DB	08H
	DB	06H
	DB	0ffH
	DB	0ffH
	DB	0ffH
	DB	0ffH
	DB	0ffH
	DB	0ffH
	DB	0ffH
	DB	0ffH
	DB	0ffH
	DB	0ffH
	DB	03H
	DB	06H
	DB	0bH
	DB	03H
	DB	00H
	DB	06H
	DB	00H
	DB	04H
	DB	06H
	DB	0ffH
	DB	0ffH
	DB	0ffH
	DB	0ffH
	DB	0ffH
	DB	0ffH
	DB	0ffH
	DB	08H
	DB	06H
	DB	0bH
	DB	08H
	DB	04H
	DB	06H
	DB	09H
	DB	00H
	DB	01H
	DB	0ffH
	DB	0ffH
	DB	0ffH
	DB	0ffH
	DB	0ffH
	DB	0ffH
	DB	0ffH
	DB	09H
	DB	04H
	DB	06H
	DB	09H
	DB	06H
	DB	03H
	DB	09H
	DB	03H
	DB	01H
	DB	0bH
	DB	03H
	DB	06H
	DB	0ffH
	DB	0ffH
	DB	0ffH
	DB	0ffH
	DB	06H
	DB	08H
	DB	04H
	DB	06H
	DB	0bH
	DB	08H
	DB	02H
	DB	0aH
	DB	01H
	DB	0ffH
	DB	0ffH
	DB	0ffH
	DB	0ffH
	DB	0ffH
	DB	0ffH
	DB	0ffH
	DB	01H
	DB	02H
	DB	0aH
	DB	03H
	DB	00H
	DB	0bH
	DB	00H
	DB	06H
	DB	0bH
	DB	00H
	DB	04H
	DB	06H
	DB	0ffH
	DB	0ffH
	DB	0ffH
	DB	0ffH
	DB	04H
	DB	0bH
	DB	08H
	DB	04H
	DB	06H
	DB	0bH
	DB	00H
	DB	02H
	DB	09H
	DB	02H
	DB	0aH
	DB	09H
	DB	0ffH
	DB	0ffH
	DB	0ffH
	DB	0ffH
	DB	0aH
	DB	09H
	DB	03H
	DB	0aH
	DB	03H
	DB	02H
	DB	09H
	DB	04H
	DB	03H
	DB	0bH
	DB	03H
	DB	06H
	DB	04H
	DB	06H
	DB	03H
	DB	0ffH
	DB	08H
	DB	02H
	DB	03H
	DB	08H
	DB	04H
	DB	02H
	DB	04H
	DB	06H
	DB	02H
	DB	0ffH
	DB	0ffH
	DB	0ffH
	DB	0ffH
	DB	0ffH
	DB	0ffH
	DB	0ffH
	DB	00H
	DB	04H
	DB	02H
	DB	04H
	DB	06H
	DB	02H
	DB	0ffH
	DB	0ffH
	DB	0ffH
	DB	0ffH
	DB	0ffH
	DB	0ffH
	DB	0ffH
	DB	0ffH
	DB	0ffH
	DB	0ffH
	DB	01H
	DB	09H
	DB	00H
	DB	02H
	DB	03H
	DB	04H
	DB	02H
	DB	04H
	DB	06H
	DB	04H
	DB	03H
	DB	08H
	DB	0ffH
	DB	0ffH
	DB	0ffH
	DB	0ffH
	DB	01H
	DB	09H
	DB	04H
	DB	01H
	DB	04H
	DB	02H
	DB	02H
	DB	04H
	DB	06H
	DB	0ffH
	DB	0ffH
	DB	0ffH
	DB	0ffH
	DB	0ffH
	DB	0ffH
	DB	0ffH
	DB	08H
	DB	01H
	DB	03H
	DB	08H
	DB	06H
	DB	01H
	DB	08H
	DB	04H
	DB	06H
	DB	06H
	DB	0aH
	DB	01H
	DB	0ffH
	DB	0ffH
	DB	0ffH
	DB	0ffH
	DB	0aH
	DB	01H
	DB	00H
	DB	0aH
	DB	00H
	DB	06H
	DB	06H
	DB	00H
	DB	04H
	DB	0ffH
	DB	0ffH
	DB	0ffH
	DB	0ffH
	DB	0ffH
	DB	0ffH
	DB	0ffH
	DB	04H
	DB	06H
	DB	03H
	DB	04H
	DB	03H
	DB	08H
	DB	06H
	DB	0aH
	DB	03H
	DB	00H
	DB	03H
	DB	09H
	DB	0aH
	DB	09H
	DB	03H
	DB	0ffH
	DB	0aH
	DB	09H
	DB	04H
	DB	06H
	DB	0aH
	DB	04H
	DB	0ffH
	DB	0ffH
	DB	0ffH
	DB	0ffH
	DB	0ffH
	DB	0ffH
	DB	0ffH
	DB	0ffH
	DB	0ffH
	DB	0ffH
	DB	04H
	DB	09H
	DB	05H
	DB	07H
	DB	06H
	DB	0bH
	DB	0ffH
	DB	0ffH
	DB	0ffH
	DB	0ffH
	DB	0ffH
	DB	0ffH
	DB	0ffH
	DB	0ffH
	DB	0ffH
	DB	0ffH
	DB	00H
	DB	08H
	DB	03H
	DB	04H
	DB	09H
	DB	05H
	DB	0bH
	DB	07H
	DB	06H
	DB	0ffH
	DB	0ffH
	DB	0ffH
	DB	0ffH
	DB	0ffH
	DB	0ffH
	DB	0ffH
	DB	05H
	DB	00H
	DB	01H
	DB	05H
	DB	04H
	DB	00H
	DB	07H
	DB	06H
	DB	0bH
	DB	0ffH
	DB	0ffH
	DB	0ffH
	DB	0ffH
	DB	0ffH
	DB	0ffH
	DB	0ffH
	DB	0bH
	DB	07H
	DB	06H
	DB	08H
	DB	03H
	DB	04H
	DB	03H
	DB	05H
	DB	04H
	DB	03H
	DB	01H
	DB	05H
	DB	0ffH
	DB	0ffH
	DB	0ffH
	DB	0ffH
	DB	09H
	DB	05H
	DB	04H
	DB	0aH
	DB	01H
	DB	02H
	DB	07H
	DB	06H
	DB	0bH
	DB	0ffH
	DB	0ffH
	DB	0ffH
	DB	0ffH
	DB	0ffH
	DB	0ffH
	DB	0ffH
	DB	06H
	DB	0bH
	DB	07H
	DB	01H
	DB	02H
	DB	0aH
	DB	00H
	DB	08H
	DB	03H
	DB	04H
	DB	09H
	DB	05H
	DB	0ffH
	DB	0ffH
	DB	0ffH
	DB	0ffH
	DB	07H
	DB	06H
	DB	0bH
	DB	05H
	DB	04H
	DB	0aH
	DB	04H
	DB	02H
	DB	0aH
	DB	04H
	DB	00H
	DB	02H
	DB	0ffH
	DB	0ffH
	DB	0ffH
	DB	0ffH
	DB	03H
	DB	04H
	DB	08H
	DB	03H
	DB	05H
	DB	04H
	DB	03H
	DB	02H
	DB	05H
	DB	0aH
	DB	05H
	DB	02H
	DB	0bH
	DB	07H
	DB	06H
	DB	0ffH
	DB	07H
	DB	02H
	DB	03H
	DB	07H
	DB	06H
	DB	02H
	DB	05H
	DB	04H
	DB	09H
	DB	0ffH
	DB	0ffH
	DB	0ffH
	DB	0ffH
	DB	0ffH
	DB	0ffH
	DB	0ffH
	DB	09H
	DB	05H
	DB	04H
	DB	00H
	DB	08H
	DB	06H
	DB	00H
	DB	06H
	DB	02H
	DB	06H
	DB	08H
	DB	07H
	DB	0ffH
	DB	0ffH
	DB	0ffH
	DB	0ffH
	DB	03H
	DB	06H
	DB	02H
	DB	03H
	DB	07H
	DB	06H
	DB	01H
	DB	05H
	DB	00H
	DB	05H
	DB	04H
	DB	00H
	DB	0ffH
	DB	0ffH
	DB	0ffH
	DB	0ffH
	DB	06H
	DB	02H
	DB	08H
	DB	06H
	DB	08H
	DB	07H
	DB	02H
	DB	01H
	DB	08H
	DB	04H
	DB	08H
	DB	05H
	DB	01H
	DB	05H
	DB	08H
	DB	0ffH
	DB	09H
	DB	05H
	DB	04H
	DB	0aH
	DB	01H
	DB	06H
	DB	01H
	DB	07H
	DB	06H
	DB	01H
	DB	03H
	DB	07H
	DB	0ffH
	DB	0ffH
	DB	0ffH
	DB	0ffH
	DB	01H
	DB	06H
	DB	0aH
	DB	01H
	DB	07H
	DB	06H
	DB	01H
	DB	00H
	DB	07H
	DB	08H
	DB	07H
	DB	00H
	DB	09H
	DB	05H
	DB	04H
	DB	0ffH
	DB	04H
	DB	00H
	DB	0aH
	DB	04H
	DB	0aH
	DB	05H
	DB	00H
	DB	03H
	DB	0aH
	DB	06H
	DB	0aH
	DB	07H
	DB	03H
	DB	07H
	DB	0aH
	DB	0ffH
	DB	07H
	DB	06H
	DB	0aH
	DB	07H
	DB	0aH
	DB	08H
	DB	05H
	DB	04H
	DB	0aH
	DB	04H
	DB	08H
	DB	0aH
	DB	0ffH
	DB	0ffH
	DB	0ffH
	DB	0ffH
	DB	06H
	DB	09H
	DB	05H
	DB	06H
	DB	0bH
	DB	09H
	DB	0bH
	DB	08H
	DB	09H
	DB	0ffH
	DB	0ffH
	DB	0ffH
	DB	0ffH
	DB	0ffH
	DB	0ffH
	DB	0ffH
	DB	03H
	DB	06H
	DB	0bH
	DB	00H
	DB	06H
	DB	03H
	DB	00H
	DB	05H
	DB	06H
	DB	00H
	DB	09H
	DB	05H
	DB	0ffH
	DB	0ffH
	DB	0ffH
	DB	0ffH
	DB	00H
	DB	0bH
	DB	08H
	DB	00H
	DB	05H
	DB	0bH
	DB	00H
	DB	01H
	DB	05H
	DB	05H
	DB	06H
	DB	0bH
	DB	0ffH
	DB	0ffH
	DB	0ffH
	DB	0ffH
	DB	06H
	DB	0bH
	DB	03H
	DB	06H
	DB	03H
	DB	05H
	DB	05H
	DB	03H
	DB	01H
	DB	0ffH
	DB	0ffH
	DB	0ffH
	DB	0ffH
	DB	0ffH
	DB	0ffH
	DB	0ffH
	DB	01H
	DB	02H
	DB	0aH
	DB	09H
	DB	05H
	DB	0bH
	DB	09H
	DB	0bH
	DB	08H
	DB	0bH
	DB	05H
	DB	06H
	DB	0ffH
	DB	0ffH
	DB	0ffH
	DB	0ffH
	DB	00H
	DB	0bH
	DB	03H
	DB	00H
	DB	06H
	DB	0bH
	DB	00H
	DB	09H
	DB	06H
	DB	05H
	DB	06H
	DB	09H
	DB	01H
	DB	02H
	DB	0aH
	DB	0ffH
	DB	0bH
	DB	08H
	DB	05H
	DB	0bH
	DB	05H
	DB	06H
	DB	08H
	DB	00H
	DB	05H
	DB	0aH
	DB	05H
	DB	02H
	DB	00H
	DB	02H
	DB	05H
	DB	0ffH
	DB	06H
	DB	0bH
	DB	03H
	DB	06H
	DB	03H
	DB	05H
	DB	02H
	DB	0aH
	DB	03H
	DB	0aH
	DB	05H
	DB	03H
	DB	0ffH
	DB	0ffH
	DB	0ffH
	DB	0ffH
	DB	05H
	DB	08H
	DB	09H
	DB	05H
	DB	02H
	DB	08H
	DB	05H
	DB	06H
	DB	02H
	DB	03H
	DB	08H
	DB	02H
	DB	0ffH
	DB	0ffH
	DB	0ffH
	DB	0ffH
	DB	09H
	DB	05H
	DB	06H
	DB	09H
	DB	06H
	DB	00H
	DB	00H
	DB	06H
	DB	02H
	DB	0ffH
	DB	0ffH
	DB	0ffH
	DB	0ffH
	DB	0ffH
	DB	0ffH
	DB	0ffH
	DB	01H
	DB	05H
	DB	08H
	DB	01H
	DB	08H
	DB	00H
	DB	05H
	DB	06H
	DB	08H
	DB	03H
	DB	08H
	DB	02H
	DB	06H
	DB	02H
	DB	08H
	DB	0ffH
	DB	01H
	DB	05H
	DB	06H
	DB	02H
	DB	01H
	DB	06H
	DB	0ffH
	DB	0ffH
	DB	0ffH
	DB	0ffH
	DB	0ffH
	DB	0ffH
	DB	0ffH
	DB	0ffH
	DB	0ffH
	DB	0ffH
	DB	01H
	DB	03H
	DB	06H
	DB	01H
	DB	06H
	DB	0aH
	DB	03H
	DB	08H
	DB	06H
	DB	05H
	DB	06H
	DB	09H
	DB	08H
	DB	09H
	DB	06H
	DB	0ffH
	DB	0aH
	DB	01H
	DB	00H
	DB	0aH
	DB	00H
	DB	06H
	DB	09H
	DB	05H
	DB	00H
	DB	05H
	DB	06H
	DB	00H
	DB	0ffH
	DB	0ffH
	DB	0ffH
	DB	0ffH
	DB	00H
	DB	03H
	DB	08H
	DB	05H
	DB	06H
	DB	0aH
	DB	0ffH
	DB	0ffH
	DB	0ffH
	DB	0ffH
	DB	0ffH
	DB	0ffH
	DB	0ffH
	DB	0ffH
	DB	0ffH
	DB	0ffH
	DB	0aH
	DB	05H
	DB	06H
	DB	0ffH
	DB	0ffH
	DB	0ffH
	DB	0ffH
	DB	0ffH
	DB	0ffH
	DB	0ffH
	DB	0ffH
	DB	0ffH
	DB	0ffH
	DB	0ffH
	DB	0ffH
	DB	0ffH
	DB	0bH
	DB	05H
	DB	0aH
	DB	07H
	DB	05H
	DB	0bH
	DB	0ffH
	DB	0ffH
	DB	0ffH
	DB	0ffH
	DB	0ffH
	DB	0ffH
	DB	0ffH
	DB	0ffH
	DB	0ffH
	DB	0ffH
	DB	0bH
	DB	05H
	DB	0aH
	DB	0bH
	DB	07H
	DB	05H
	DB	08H
	DB	03H
	DB	00H
	DB	0ffH
	DB	0ffH
	DB	0ffH
	DB	0ffH
	DB	0ffH
	DB	0ffH
	DB	0ffH
	DB	05H
	DB	0bH
	DB	07H
	DB	05H
	DB	0aH
	DB	0bH
	DB	01H
	DB	09H
	DB	00H
	DB	0ffH
	DB	0ffH
	DB	0ffH
	DB	0ffH
	DB	0ffH
	DB	0ffH
	DB	0ffH
	DB	0aH
	DB	07H
	DB	05H
	DB	0aH
	DB	0bH
	DB	07H
	DB	09H
	DB	08H
	DB	01H
	DB	08H
	DB	03H
	DB	01H
	DB	0ffH
	DB	0ffH
	DB	0ffH
	DB	0ffH
	DB	0bH
	DB	01H
	DB	02H
	DB	0bH
	DB	07H
	DB	01H
	DB	07H
	DB	05H
	DB	01H
	DB	0ffH
	DB	0ffH
	DB	0ffH
	DB	0ffH
	DB	0ffH
	DB	0ffH
	DB	0ffH
	DB	00H
	DB	08H
	DB	03H
	DB	01H
	DB	02H
	DB	07H
	DB	01H
	DB	07H
	DB	05H
	DB	07H
	DB	02H
	DB	0bH
	DB	0ffH
	DB	0ffH
	DB	0ffH
	DB	0ffH
	DB	09H
	DB	07H
	DB	05H
	DB	09H
	DB	02H
	DB	07H
	DB	09H
	DB	00H
	DB	02H
	DB	02H
	DB	0bH
	DB	07H
	DB	0ffH
	DB	0ffH
	DB	0ffH
	DB	0ffH
	DB	07H
	DB	05H
	DB	02H
	DB	07H
	DB	02H
	DB	0bH
	DB	05H
	DB	09H
	DB	02H
	DB	03H
	DB	02H
	DB	08H
	DB	09H
	DB	08H
	DB	02H
	DB	0ffH
	DB	02H
	DB	05H
	DB	0aH
	DB	02H
	DB	03H
	DB	05H
	DB	03H
	DB	07H
	DB	05H
	DB	0ffH
	DB	0ffH
	DB	0ffH
	DB	0ffH
	DB	0ffH
	DB	0ffH
	DB	0ffH
	DB	08H
	DB	02H
	DB	00H
	DB	08H
	DB	05H
	DB	02H
	DB	08H
	DB	07H
	DB	05H
	DB	0aH
	DB	02H
	DB	05H
	DB	0ffH
	DB	0ffH
	DB	0ffH
	DB	0ffH
	DB	09H
	DB	00H
	DB	01H
	DB	05H
	DB	0aH
	DB	03H
	DB	05H
	DB	03H
	DB	07H
	DB	03H
	DB	0aH
	DB	02H
	DB	0ffH
	DB	0ffH
	DB	0ffH
	DB	0ffH
	DB	09H
	DB	08H
	DB	02H
	DB	09H
	DB	02H
	DB	01H
	DB	08H
	DB	07H
	DB	02H
	DB	0aH
	DB	02H
	DB	05H
	DB	07H
	DB	05H
	DB	02H
	DB	0ffH
	DB	01H
	DB	03H
	DB	05H
	DB	03H
	DB	07H
	DB	05H
	DB	0ffH
	DB	0ffH
	DB	0ffH
	DB	0ffH
	DB	0ffH
	DB	0ffH
	DB	0ffH
	DB	0ffH
	DB	0ffH
	DB	0ffH
	DB	00H
	DB	08H
	DB	07H
	DB	00H
	DB	07H
	DB	01H
	DB	01H
	DB	07H
	DB	05H
	DB	0ffH
	DB	0ffH
	DB	0ffH
	DB	0ffH
	DB	0ffH
	DB	0ffH
	DB	0ffH
	DB	09H
	DB	00H
	DB	03H
	DB	09H
	DB	03H
	DB	05H
	DB	05H
	DB	03H
	DB	07H
	DB	0ffH
	DB	0ffH
	DB	0ffH
	DB	0ffH
	DB	0ffH
	DB	0ffH
	DB	0ffH
	DB	09H
	DB	08H
	DB	07H
	DB	05H
	DB	09H
	DB	07H
	DB	0ffH
	DB	0ffH
	DB	0ffH
	DB	0ffH
	DB	0ffH
	DB	0ffH
	DB	0ffH
	DB	0ffH
	DB	0ffH
	DB	0ffH
	DB	05H
	DB	08H
	DB	04H
	DB	05H
	DB	0aH
	DB	08H
	DB	0aH
	DB	0bH
	DB	08H
	DB	0ffH
	DB	0ffH
	DB	0ffH
	DB	0ffH
	DB	0ffH
	DB	0ffH
	DB	0ffH
	DB	05H
	DB	00H
	DB	04H
	DB	05H
	DB	0bH
	DB	00H
	DB	05H
	DB	0aH
	DB	0bH
	DB	0bH
	DB	03H
	DB	00H
	DB	0ffH
	DB	0ffH
	DB	0ffH
	DB	0ffH
	DB	00H
	DB	01H
	DB	09H
	DB	08H
	DB	04H
	DB	0aH
	DB	08H
	DB	0aH
	DB	0bH
	DB	0aH
	DB	04H
	DB	05H
	DB	0ffH
	DB	0ffH
	DB	0ffH
	DB	0ffH
	DB	0aH
	DB	0bH
	DB	04H
	DB	0aH
	DB	04H
	DB	05H
	DB	0bH
	DB	03H
	DB	04H
	DB	09H
	DB	04H
	DB	01H
	DB	03H
	DB	01H
	DB	04H
	DB	0ffH
	DB	02H
	DB	05H
	DB	01H
	DB	02H
	DB	08H
	DB	05H
	DB	02H
	DB	0bH
	DB	08H
	DB	04H
	DB	05H
	DB	08H
	DB	0ffH
	DB	0ffH
	DB	0ffH
	DB	0ffH
	DB	00H
	DB	04H
	DB	0bH
	DB	00H
	DB	0bH
	DB	03H
	DB	04H
	DB	05H
	DB	0bH
	DB	02H
	DB	0bH
	DB	01H
	DB	05H
	DB	01H
	DB	0bH
	DB	0ffH
	DB	00H
	DB	02H
	DB	05H
	DB	00H
	DB	05H
	DB	09H
	DB	02H
	DB	0bH
	DB	05H
	DB	04H
	DB	05H
	DB	08H
	DB	0bH
	DB	08H
	DB	05H
	DB	0ffH
	DB	09H
	DB	04H
	DB	05H
	DB	02H
	DB	0bH
	DB	03H
	DB	0ffH
	DB	0ffH
	DB	0ffH
	DB	0ffH
	DB	0ffH
	DB	0ffH
	DB	0ffH
	DB	0ffH
	DB	0ffH
	DB	0ffH
	DB	02H
	DB	05H
	DB	0aH
	DB	03H
	DB	05H
	DB	02H
	DB	03H
	DB	04H
	DB	05H
	DB	03H
	DB	08H
	DB	04H
	DB	0ffH
	DB	0ffH
	DB	0ffH
	DB	0ffH
	DB	05H
	DB	0aH
	DB	02H
	DB	05H
	DB	02H
	DB	04H
	DB	04H
	DB	02H
	DB	00H
	DB	0ffH
	DB	0ffH
	DB	0ffH
	DB	0ffH
	DB	0ffH
	DB	0ffH
	DB	0ffH
	DB	03H
	DB	0aH
	DB	02H
	DB	03H
	DB	05H
	DB	0aH
	DB	03H
	DB	08H
	DB	05H
	DB	04H
	DB	05H
	DB	08H
	DB	00H
	DB	01H
	DB	09H
	DB	0ffH
	DB	05H
	DB	0aH
	DB	02H
	DB	05H
	DB	02H
	DB	04H
	DB	01H
	DB	09H
	DB	02H
	DB	09H
	DB	04H
	DB	02H
	DB	0ffH
	DB	0ffH
	DB	0ffH
	DB	0ffH
	DB	08H
	DB	04H
	DB	05H
	DB	08H
	DB	05H
	DB	03H
	DB	03H
	DB	05H
	DB	01H
	DB	0ffH
	DB	0ffH
	DB	0ffH
	DB	0ffH
	DB	0ffH
	DB	0ffH
	DB	0ffH
	DB	00H
	DB	04H
	DB	05H
	DB	01H
	DB	00H
	DB	05H
	DB	0ffH
	DB	0ffH
	DB	0ffH
	DB	0ffH
	DB	0ffH
	DB	0ffH
	DB	0ffH
	DB	0ffH
	DB	0ffH
	DB	0ffH
	DB	08H
	DB	04H
	DB	05H
	DB	08H
	DB	05H
	DB	03H
	DB	09H
	DB	00H
	DB	05H
	DB	00H
	DB	03H
	DB	05H
	DB	0ffH
	DB	0ffH
	DB	0ffH
	DB	0ffH
	DB	09H
	DB	04H
	DB	05H
	DB	0ffH
	DB	0ffH
	DB	0ffH
	DB	0ffH
	DB	0ffH
	DB	0ffH
	DB	0ffH
	DB	0ffH
	DB	0ffH
	DB	0ffH
	DB	0ffH
	DB	0ffH
	DB	0ffH
	DB	04H
	DB	0bH
	DB	07H
	DB	04H
	DB	09H
	DB	0bH
	DB	09H
	DB	0aH
	DB	0bH
	DB	0ffH
	DB	0ffH
	DB	0ffH
	DB	0ffH
	DB	0ffH
	DB	0ffH
	DB	0ffH
	DB	00H
	DB	08H
	DB	03H
	DB	04H
	DB	09H
	DB	07H
	DB	09H
	DB	0bH
	DB	07H
	DB	09H
	DB	0aH
	DB	0bH
	DB	0ffH
	DB	0ffH
	DB	0ffH
	DB	0ffH
	DB	01H
	DB	0aH
	DB	0bH
	DB	01H
	DB	0bH
	DB	04H
	DB	01H
	DB	04H
	DB	00H
	DB	07H
	DB	04H
	DB	0bH
	DB	0ffH
	DB	0ffH
	DB	0ffH
	DB	0ffH
	DB	03H
	DB	01H
	DB	04H
	DB	03H
	DB	04H
	DB	08H
	DB	01H
	DB	0aH
	DB	04H
	DB	07H
	DB	04H
	DB	0bH
	DB	0aH
	DB	0bH
	DB	04H
	DB	0ffH
	DB	04H
	DB	0bH
	DB	07H
	DB	09H
	DB	0bH
	DB	04H
	DB	09H
	DB	02H
	DB	0bH
	DB	09H
	DB	01H
	DB	02H
	DB	0ffH
	DB	0ffH
	DB	0ffH
	DB	0ffH
	DB	09H
	DB	07H
	DB	04H
	DB	09H
	DB	0bH
	DB	07H
	DB	09H
	DB	01H
	DB	0bH
	DB	02H
	DB	0bH
	DB	01H
	DB	00H
	DB	08H
	DB	03H
	DB	0ffH
	DB	0bH
	DB	07H
	DB	04H
	DB	0bH
	DB	04H
	DB	02H
	DB	02H
	DB	04H
	DB	00H
	DB	0ffH
	DB	0ffH
	DB	0ffH
	DB	0ffH
	DB	0ffH
	DB	0ffH
	DB	0ffH
	DB	0bH
	DB	07H
	DB	04H
	DB	0bH
	DB	04H
	DB	02H
	DB	08H
	DB	03H
	DB	04H
	DB	03H
	DB	02H
	DB	04H
	DB	0ffH
	DB	0ffH
	DB	0ffH
	DB	0ffH
	DB	02H
	DB	09H
	DB	0aH
	DB	02H
	DB	07H
	DB	09H
	DB	02H
	DB	03H
	DB	07H
	DB	07H
	DB	04H
	DB	09H
	DB	0ffH
	DB	0ffH
	DB	0ffH
	DB	0ffH
	DB	09H
	DB	0aH
	DB	07H
	DB	09H
	DB	07H
	DB	04H
	DB	0aH
	DB	02H
	DB	07H
	DB	08H
	DB	07H
	DB	00H
	DB	02H
	DB	00H
	DB	07H
	DB	0ffH
	DB	03H
	DB	07H
	DB	0aH
	DB	03H
	DB	0aH
	DB	02H
	DB	07H
	DB	04H
	DB	0aH
	DB	01H
	DB	0aH
	DB	00H
	DB	04H
	DB	00H
	DB	0aH
	DB	0ffH
	DB	01H
	DB	0aH
	DB	02H
	DB	08H
	DB	07H
	DB	04H
	DB	0ffH
	DB	0ffH
	DB	0ffH
	DB	0ffH
	DB	0ffH
	DB	0ffH
	DB	0ffH
	DB	0ffH
	DB	0ffH
	DB	0ffH
	DB	04H
	DB	09H
	DB	01H
	DB	04H
	DB	01H
	DB	07H
	DB	07H
	DB	01H
	DB	03H
	DB	0ffH
	DB	0ffH
	DB	0ffH
	DB	0ffH
	DB	0ffH
	DB	0ffH
	DB	0ffH
	DB	04H
	DB	09H
	DB	01H
	DB	04H
	DB	01H
	DB	07H
	DB	00H
	DB	08H
	DB	01H
	DB	08H
	DB	07H
	DB	01H
	DB	0ffH
	DB	0ffH
	DB	0ffH
	DB	0ffH
	DB	04H
	DB	00H
	DB	03H
	DB	07H
	DB	04H
	DB	03H
	DB	0ffH
	DB	0ffH
	DB	0ffH
	DB	0ffH
	DB	0ffH
	DB	0ffH
	DB	0ffH
	DB	0ffH
	DB	0ffH
	DB	0ffH
	DB	04H
	DB	08H
	DB	07H
	DB	0ffH
	DB	0ffH
	DB	0ffH
	DB	0ffH
	DB	0ffH
	DB	0ffH
	DB	0ffH
	DB	0ffH
	DB	0ffH
	DB	0ffH
	DB	0ffH
	DB	0ffH
	DB	0ffH
	DB	09H
	DB	0aH
	DB	08H
	DB	0aH
	DB	0bH
	DB	08H
	DB	0ffH
	DB	0ffH
	DB	0ffH
	DB	0ffH
	DB	0ffH
	DB	0ffH
	DB	0ffH
	DB	0ffH
	DB	0ffH
	DB	0ffH
	DB	03H
	DB	00H
	DB	09H
	DB	03H
	DB	09H
	DB	0bH
	DB	0bH
	DB	09H
	DB	0aH
	DB	0ffH
	DB	0ffH
	DB	0ffH
	DB	0ffH
	DB	0ffH
	DB	0ffH
	DB	0ffH
	DB	00H
	DB	01H
	DB	0aH
	DB	00H
	DB	0aH
	DB	08H
	DB	08H
	DB	0aH
	DB	0bH
	DB	0ffH
	DB	0ffH
	DB	0ffH
	DB	0ffH
	DB	0ffH
	DB	0ffH
	DB	0ffH
	DB	03H
	DB	01H
	DB	0aH
	DB	0bH
	DB	03H
	DB	0aH
	DB	0ffH
	DB	0ffH
	DB	0ffH
	DB	0ffH
	DB	0ffH
	DB	0ffH
	DB	0ffH
	DB	0ffH
	DB	0ffH
	DB	0ffH
	DB	01H
	DB	02H
	DB	0bH
	DB	01H
	DB	0bH
	DB	09H
	DB	09H
	DB	0bH
	DB	08H
	DB	0ffH
	DB	0ffH
	DB	0ffH
	DB	0ffH
	DB	0ffH
	DB	0ffH
	DB	0ffH
	DB	03H
	DB	00H
	DB	09H
	DB	03H
	DB	09H
	DB	0bH
	DB	01H
	DB	02H
	DB	09H
	DB	02H
	DB	0bH
	DB	09H
	DB	0ffH
	DB	0ffH
	DB	0ffH
	DB	0ffH
	DB	00H
	DB	02H
	DB	0bH
	DB	08H
	DB	00H
	DB	0bH
	DB	0ffH
	DB	0ffH
	DB	0ffH
	DB	0ffH
	DB	0ffH
	DB	0ffH
	DB	0ffH
	DB	0ffH
	DB	0ffH
	DB	0ffH
	DB	03H
	DB	02H
	DB	0bH
	DB	0ffH
	DB	0ffH
	DB	0ffH
	DB	0ffH
	DB	0ffH
	DB	0ffH
	DB	0ffH
	DB	0ffH
	DB	0ffH
	DB	0ffH
	DB	0ffH
	DB	0ffH
	DB	0ffH
	DB	02H
	DB	03H
	DB	08H
	DB	02H
	DB	08H
	DB	0aH
	DB	0aH
	DB	08H
	DB	09H
	DB	0ffH
	DB	0ffH
	DB	0ffH
	DB	0ffH
	DB	0ffH
	DB	0ffH
	DB	0ffH
	DB	09H
	DB	0aH
	DB	02H
	DB	00H
	DB	09H
	DB	02H
	DB	0ffH
	DB	0ffH
	DB	0ffH
	DB	0ffH
	DB	0ffH
	DB	0ffH
	DB	0ffH
	DB	0ffH
	DB	0ffH
	DB	0ffH
	DB	02H
	DB	03H
	DB	08H
	DB	02H
	DB	08H
	DB	0aH
	DB	00H
	DB	01H
	DB	08H
	DB	01H
	DB	0aH
	DB	08H
	DB	0ffH
	DB	0ffH
	DB	0ffH
	DB	0ffH
	DB	01H
	DB	0aH
	DB	02H
	DB	0ffH
	DB	0ffH
	DB	0ffH
	DB	0ffH
	DB	0ffH
	DB	0ffH
	DB	0ffH
	DB	0ffH
	DB	0ffH
	DB	0ffH
	DB	0ffH
	DB	0ffH
	DB	0ffH
	DB	01H
	DB	03H
	DB	08H
	DB	09H
	DB	01H
	DB	08H
	DB	0ffH
	DB	0ffH
	DB	0ffH
	DB	0ffH
	DB	0ffH
	DB	0ffH
	DB	0ffH
	DB	0ffH
	DB	0ffH
	DB	0ffH
	DB	00H
	DB	09H
	DB	01H
	DB	0ffH
	DB	0ffH
	DB	0ffH
	DB	0ffH
	DB	0ffH
	DB	0ffH
	DB	0ffH
	DB	0ffH
	DB	0ffH
	DB	0ffH
	DB	0ffH
	DB	0ffH
	DB	0ffH
	DB	00H
	DB	03H
	DB	08H
	DB	0ffH
	DB	0ffH
	DB	0ffH
	DB	0ffH
	DB	0ffH
	DB	0ffH
	DB	0ffH
	DB	0ffH
	DB	0ffH
	DB	0ffH
	DB	0ffH
	DB	0ffH
	DB	0ffH
	DB	0ffH
	DB	0ffH
	DB	0ffH
	DB	0ffH
	DB	0ffH
	DB	0ffH
	DB	0ffH
	DB	0ffH
	DB	0ffH
	DB	0ffH
	DB	0ffH
	DB	0ffH
	DB	0ffH
	DB	0ffH
	DB	0ffH
	DB	0ffH
_DATA	ENDS
PUBLIC	??_H@YGXPAXIIP6EPAX0@Z@Z			; `vector constructor iterator'
PUBLIC	?__empty_global_delete@@YAXPAX@Z		; __empty_global_delete
PUBLIC	?__empty_global_delete@@YAXPAXI@Z		; __empty_global_delete
PUBLIC	??0Vec3f@@QAE@XZ				; Vec3f::Vec3f
PUBLIC	??0Vec3f@@QAE@MMM@Z				; Vec3f::Vec3f
PUBLIC	??4Vec3f@@QAEAAU0@ABU0@@Z			; Vec3f::operator=
PUBLIC	??D@YA?AUVec3f@@MABU0@@Z			; operator*
PUBLIC	??H@YA?AUVec3f@@ABU0@0@Z			; operator+
PUBLIC	??G@YA?AUVec3f@@ABU0@0@Z			; operator-
PUBLIC	?Polygonise@@YAHAAUGRIDCELL@@PAUTriMeshFace@@AAHPAUVec3f@@@Z ; Polygonise
PUBLIC	?VertexInterp@@YA?AUVec3f@@ABU1@0MM@Z		; VertexInterp
PUBLIC	__xmm@80000000800000008000000080000000
EXTRN	@_RTC_CheckStackVars@8:PROC
EXTRN	@__security_check_cookie@4:PROC
EXTRN	__RTC_CheckEsp:PROC
EXTRN	__RTC_InitBase:PROC
EXTRN	__RTC_Shutdown:PROC
EXTRN	___security_cookie:DWORD
EXTRN	__fltused:DWORD
;	COMDAT __xmm@80000000800000008000000080000000
CONST	SEGMENT
__xmm@80000000800000008000000080000000 DB 00H, 00H, 00H, 080H, 00H, 00H, 00H
	DB	080H, 00H, 00H, 00H, 080H, 00H, 00H, 00H, 080H
CONST	ENDS
;	COMDAT rtc$TMZ
rtc$TMZ	SEGMENT
__RTC_Shutdown.rtc$TMZ DD FLAT:__RTC_Shutdown
rtc$TMZ	ENDS
;	COMDAT rtc$IMZ
rtc$IMZ	SEGMENT
__RTC_InitBase.rtc$IMZ DD FLAT:__RTC_InitBase
rtc$IMZ	ENDS
; Function compile flags: /Odtp /RTCsu /ZI
;	COMDAT ?VertexInterp@@YA?AUVec3f@@ABU1@0MM@Z
_TEXT	SEGMENT
$T1 = -228						; size = 12
$T2 = -208						; size = 12
___$ReturnUdt$ = 8					; size = 4
_p1$ = 12						; size = 4
_p2$ = 16						; size = 4
_valp1$ = 20						; size = 4
_valp2$ = 24						; size = 4
?VertexInterp@@YA?AUVec3f@@ABU1@0MM@Z PROC		; VertexInterp, COMDAT
; File E:\Docs\Coding_Projects\C++\Computer Graphics\Marching Cubes\MarchingCubes\MarchingCubes.cpp
; Line 397
	push	ebp
	mov	ebp, esp
	sub	esp, 232				; 000000e8H
	push	ebx
	push	esi
	push	edi
	lea	edi, DWORD PTR [ebp-232]
	mov	ecx, 58					; 0000003aH
	mov	eax, -858993460				; ccccccccH
	rep stosd
; Line 398
	mov	eax, DWORD PTR _p1$[ebp]
	push	eax
	mov	ecx, DWORD PTR _p2$[ebp]
	push	ecx
	lea	edx, DWORD PTR $T2[ebp]
	push	edx
	call	??G@YA?AUVec3f@@ABU0@0@Z		; operator-
	add	esp, 12					; 0000000cH
	push	eax
	movss	xmm0, DWORD PTR _valp1$[ebp]
	xorps	xmm0, DWORD PTR __xmm@80000000800000008000000080000000
	movss	xmm1, DWORD PTR _valp2$[ebp]
	subss	xmm1, DWORD PTR _valp1$[ebp]
	divss	xmm0, xmm1
	push	ecx
	movss	DWORD PTR [esp], xmm0
	lea	eax, DWORD PTR $T1[ebp]
	push	eax
	call	??D@YA?AUVec3f@@MABU0@@Z		; operator*
	add	esp, 12					; 0000000cH
	push	eax
	mov	ecx, DWORD PTR _p1$[ebp]
	push	ecx
	mov	edx, DWORD PTR ___$ReturnUdt$[ebp]
	push	edx
	call	??H@YA?AUVec3f@@ABU0@0@Z		; operator+
	add	esp, 12					; 0000000cH
	mov	eax, DWORD PTR ___$ReturnUdt$[ebp]
; Line 399
	pop	edi
	pop	esi
	pop	ebx
	add	esp, 232				; 000000e8H
	cmp	ebp, esp
	call	__RTC_CheckEsp
	mov	esp, ebp
	pop	ebp
	ret	0
?VertexInterp@@YA?AUVec3f@@ABU1@0MM@Z ENDP		; VertexInterp
_TEXT	ENDS
; Function compile flags: /Odtp /RTCsu /ZI
;	COMDAT ?Polygonise@@YAHAAUGRIDCELL@@PAUTriMeshFace@@AAHPAUVec3f@@@Z
_TEXT	SEGMENT
$T1 = -1032						; size = 12
$T2 = -1012						; size = 12
$T3 = -992						; size = 12
$T4 = -972						; size = 12
$T5 = -952						; size = 12
$T6 = -932						; size = 12
$T7 = -912						; size = 12
$T8 = -892						; size = 12
$T9 = -872						; size = 12
$T10 = -852						; size = 12
$T11 = -832						; size = 12
$T12 = -812						; size = 12
_i$13 = -408						; size = 4
_i$14 = -396						; size = 4
_i$15 = -384						; size = 4
_i$16 = -372						; size = 4
_threshold$ = -360					; size = 4
_LocalRemap$ = -348					; size = 12
_NewVertexList$ = -328					; size = 144
_VertexList$ = -176					; size = 144
_CubeIndex$ = -24					; size = 4
_TriangleCount$ = -12					; size = 4
__$ArrayPad$ = -4					; size = 4
_Grid$ = 8						; size = 4
_Triangles$ = 12					; size = 4
_NewVertexCount$ = 16					; size = 4
_Vertices$ = 20						; size = 4
?Polygonise@@YAHAAUGRIDCELL@@PAUTriMeshFace@@AAHPAUVec3f@@@Z PROC ; Polygonise, COMDAT
; File E:\Docs\Coding_Projects\C++\Computer Graphics\Marching Cubes\MarchingCubes\MarchingCubes.cpp
; Line 300
	push	ebp
	mov	ebp, esp
	sub	esp, 1036				; 0000040cH
	push	ebx
	push	esi
	push	edi
	lea	edi, DWORD PTR [ebp-1036]
	mov	ecx, 259				; 00000103H
	mov	eax, -858993460				; ccccccccH
	rep stosd
	mov	eax, DWORD PTR ___security_cookie
	xor	eax, ebp
	mov	DWORD PTR __$ArrayPad$[ebp], eax
; Line 304
	push	OFFSET ??0Vec3f@@QAE@XZ			; Vec3f::Vec3f
	push	12					; 0000000cH
	push	12					; 0000000cH
	lea	eax, DWORD PTR _VertexList$[ebp]
	push	eax
	call	??_H@YGXPAXIIP6EPAX0@Z@Z
; Line 305
	push	OFFSET ??0Vec3f@@QAE@XZ			; Vec3f::Vec3f
	push	12					; 0000000cH
	push	12					; 0000000cH
	lea	eax, DWORD PTR _NewVertexList$[ebp]
	push	eax
	call	??_H@YGXPAXIIP6EPAX0@Z@Z
; Line 310
	mov	DWORD PTR _CubeIndex$[ebp], 0
; Line 311
	xorps	xmm0, xmm0
	movss	DWORD PTR _threshold$[ebp], xmm0
; Line 312
	mov	eax, 4
	imul	ecx, eax, 0
	mov	edx, DWORD PTR _Grid$[ebp]
	movss	xmm0, DWORD PTR _threshold$[ebp]
	comiss	xmm0, DWORD PTR [edx+ecx+96]
	jbe	SHORT $LN14@Polygonise
	mov	eax, DWORD PTR _CubeIndex$[ebp]
	or	eax, 1
	mov	DWORD PTR _CubeIndex$[ebp], eax
$LN14@Polygonise:
; Line 313
	mov	eax, 4
	shl	eax, 0
	mov	ecx, DWORD PTR _Grid$[ebp]
	movss	xmm0, DWORD PTR _threshold$[ebp]
	comiss	xmm0, DWORD PTR [ecx+eax+96]
	jbe	SHORT $LN15@Polygonise
	mov	eax, DWORD PTR _CubeIndex$[ebp]
	or	eax, 2
	mov	DWORD PTR _CubeIndex$[ebp], eax
$LN15@Polygonise:
; Line 314
	mov	eax, 4
	shl	eax, 1
	mov	ecx, DWORD PTR _Grid$[ebp]
	movss	xmm0, DWORD PTR _threshold$[ebp]
	comiss	xmm0, DWORD PTR [ecx+eax+96]
	jbe	SHORT $LN16@Polygonise
	mov	eax, DWORD PTR _CubeIndex$[ebp]
	or	eax, 4
	mov	DWORD PTR _CubeIndex$[ebp], eax
$LN16@Polygonise:
; Line 315
	mov	eax, 4
	imul	ecx, eax, 3
	mov	edx, DWORD PTR _Grid$[ebp]
	movss	xmm0, DWORD PTR _threshold$[ebp]
	comiss	xmm0, DWORD PTR [edx+ecx+96]
	jbe	SHORT $LN17@Polygonise
	mov	eax, DWORD PTR _CubeIndex$[ebp]
	or	eax, 8
	mov	DWORD PTR _CubeIndex$[ebp], eax
$LN17@Polygonise:
; Line 316
	mov	eax, 4
	shl	eax, 2
	mov	ecx, DWORD PTR _Grid$[ebp]
	movss	xmm0, DWORD PTR _threshold$[ebp]
	comiss	xmm0, DWORD PTR [ecx+eax+96]
	jbe	SHORT $LN18@Polygonise
	mov	eax, DWORD PTR _CubeIndex$[ebp]
	or	eax, 16					; 00000010H
	mov	DWORD PTR _CubeIndex$[ebp], eax
$LN18@Polygonise:
; Line 317
	mov	eax, 4
	imul	ecx, eax, 5
	mov	edx, DWORD PTR _Grid$[ebp]
	movss	xmm0, DWORD PTR _threshold$[ebp]
	comiss	xmm0, DWORD PTR [edx+ecx+96]
	jbe	SHORT $LN19@Polygonise
	mov	eax, DWORD PTR _CubeIndex$[ebp]
	or	eax, 32					; 00000020H
	mov	DWORD PTR _CubeIndex$[ebp], eax
$LN19@Polygonise:
; Line 318
	mov	eax, 4
	imul	ecx, eax, 6
	mov	edx, DWORD PTR _Grid$[ebp]
	movss	xmm0, DWORD PTR _threshold$[ebp]
	comiss	xmm0, DWORD PTR [edx+ecx+96]
	jbe	SHORT $LN20@Polygonise
	mov	eax, DWORD PTR _CubeIndex$[ebp]
	or	eax, 64					; 00000040H
	mov	DWORD PTR _CubeIndex$[ebp], eax
$LN20@Polygonise:
; Line 319
	mov	eax, 4
	imul	ecx, eax, 7
	mov	edx, DWORD PTR _Grid$[ebp]
	movss	xmm0, DWORD PTR _threshold$[ebp]
	comiss	xmm0, DWORD PTR [edx+ecx+96]
	jbe	SHORT $LN21@Polygonise
	mov	eax, DWORD PTR _CubeIndex$[ebp]
	or	eax, 128				; 00000080H
	mov	DWORD PTR _CubeIndex$[ebp], eax
$LN21@Polygonise:
; Line 322
	mov	eax, DWORD PTR _CubeIndex$[ebp]
	cmp	DWORD PTR ?edgeTable@@3PAHA[eax*4], 0
	jne	SHORT $LN22@Polygonise
; Line 323
	xor	eax, eax
	jmp	$LN1@Polygonise
$LN22@Polygonise:
; Line 326
	mov	eax, DWORD PTR _CubeIndex$[ebp]
	mov	ecx, DWORD PTR ?edgeTable@@3PAHA[eax*4]
	and	ecx, 1
	je	SHORT $LN23@Polygonise
; Line 327
	mov	eax, 4
	shl	eax, 0
	mov	ecx, DWORD PTR _Grid$[ebp]
	push	ecx
	movss	xmm0, DWORD PTR [ecx+eax+96]
	movss	DWORD PTR [esp], xmm0
	mov	edx, 4
	imul	eax, edx, 0
	mov	ecx, DWORD PTR _Grid$[ebp]
	push	ecx
	movss	xmm0, DWORD PTR [ecx+eax+96]
	movss	DWORD PTR [esp], xmm0
	mov	edx, 12					; 0000000cH
	shl	edx, 0
	add	edx, DWORD PTR _Grid$[ebp]
	push	edx
	mov	eax, 12					; 0000000cH
	imul	ecx, eax, 0
	add	ecx, DWORD PTR _Grid$[ebp]
	push	ecx
	lea	edx, DWORD PTR $T12[ebp]
	push	edx
	call	?VertexInterp@@YA?AUVec3f@@ABU1@0MM@Z	; VertexInterp
	add	esp, 20					; 00000014H
	push	eax
	mov	eax, 12					; 0000000cH
	imul	ecx, eax, 0
	lea	ecx, DWORD PTR _VertexList$[ebp+ecx]
	call	??4Vec3f@@QAEAAU0@ABU0@@Z		; Vec3f::operator=
$LN23@Polygonise:
; Line 329
	mov	eax, DWORD PTR _CubeIndex$[ebp]
	mov	ecx, DWORD PTR ?edgeTable@@3PAHA[eax*4]
	and	ecx, 2
	je	SHORT $LN24@Polygonise
; Line 330
	mov	eax, 4
	shl	eax, 1
	mov	ecx, DWORD PTR _Grid$[ebp]
	push	ecx
	movss	xmm0, DWORD PTR [ecx+eax+96]
	movss	DWORD PTR [esp], xmm0
	mov	edx, 4
	shl	edx, 0
	mov	eax, DWORD PTR _Grid$[ebp]
	push	ecx
	movss	xmm0, DWORD PTR [eax+edx+96]
	movss	DWORD PTR [esp], xmm0
	mov	ecx, 12					; 0000000cH
	shl	ecx, 1
	add	ecx, DWORD PTR _Grid$[ebp]
	push	ecx
	mov	edx, 12					; 0000000cH
	shl	edx, 0
	add	edx, DWORD PTR _Grid$[ebp]
	push	edx
	lea	eax, DWORD PTR $T11[ebp]
	push	eax
	call	?VertexInterp@@YA?AUVec3f@@ABU1@0MM@Z	; VertexInterp
	add	esp, 20					; 00000014H
	push	eax
	mov	ecx, 12					; 0000000cH
	shl	ecx, 0
	lea	ecx, DWORD PTR _VertexList$[ebp+ecx]
	call	??4Vec3f@@QAEAAU0@ABU0@@Z		; Vec3f::operator=
$LN24@Polygonise:
; Line 332
	mov	eax, DWORD PTR _CubeIndex$[ebp]
	mov	ecx, DWORD PTR ?edgeTable@@3PAHA[eax*4]
	and	ecx, 4
	je	SHORT $LN25@Polygonise
; Line 333
	mov	eax, 4
	imul	ecx, eax, 3
	mov	edx, DWORD PTR _Grid$[ebp]
	push	ecx
	movss	xmm0, DWORD PTR [edx+ecx+96]
	movss	DWORD PTR [esp], xmm0
	mov	eax, 4
	shl	eax, 1
	mov	ecx, DWORD PTR _Grid$[ebp]
	push	ecx
	movss	xmm0, DWORD PTR [ecx+eax+96]
	movss	DWORD PTR [esp], xmm0
	mov	edx, 12					; 0000000cH
	imul	eax, edx, 3
	add	eax, DWORD PTR _Grid$[ebp]
	push	eax
	mov	ecx, 12					; 0000000cH
	shl	ecx, 1
	add	ecx, DWORD PTR _Grid$[ebp]
	push	ecx
	lea	edx, DWORD PTR $T10[ebp]
	push	edx
	call	?VertexInterp@@YA?AUVec3f@@ABU1@0MM@Z	; VertexInterp
	add	esp, 20					; 00000014H
	push	eax
	mov	eax, 12					; 0000000cH
	shl	eax, 1
	lea	ecx, DWORD PTR _VertexList$[ebp+eax]
	call	??4Vec3f@@QAEAAU0@ABU0@@Z		; Vec3f::operator=
$LN25@Polygonise:
; Line 335
	mov	eax, DWORD PTR _CubeIndex$[ebp]
	mov	ecx, DWORD PTR ?edgeTable@@3PAHA[eax*4]
	and	ecx, 8
	je	SHORT $LN26@Polygonise
; Line 336
	mov	eax, 4
	imul	ecx, eax, 0
	mov	edx, DWORD PTR _Grid$[ebp]
	push	ecx
	movss	xmm0, DWORD PTR [edx+ecx+96]
	movss	DWORD PTR [esp], xmm0
	mov	eax, 4
	imul	ecx, eax, 3
	mov	edx, DWORD PTR _Grid$[ebp]
	push	ecx
	movss	xmm0, DWORD PTR [edx+ecx+96]
	movss	DWORD PTR [esp], xmm0
	mov	eax, 12					; 0000000cH
	imul	ecx, eax, 0
	add	ecx, DWORD PTR _Grid$[ebp]
	push	ecx
	mov	edx, 12					; 0000000cH
	imul	eax, edx, 3
	add	eax, DWORD PTR _Grid$[ebp]
	push	eax
	lea	ecx, DWORD PTR $T9[ebp]
	push	ecx
	call	?VertexInterp@@YA?AUVec3f@@ABU1@0MM@Z	; VertexInterp
	add	esp, 20					; 00000014H
	push	eax
	mov	edx, 12					; 0000000cH
	imul	eax, edx, 3
	lea	ecx, DWORD PTR _VertexList$[ebp+eax]
	call	??4Vec3f@@QAEAAU0@ABU0@@Z		; Vec3f::operator=
$LN26@Polygonise:
; Line 338
	mov	eax, DWORD PTR _CubeIndex$[ebp]
	mov	ecx, DWORD PTR ?edgeTable@@3PAHA[eax*4]
	and	ecx, 16					; 00000010H
	je	SHORT $LN27@Polygonise
; Line 339
	mov	eax, 4
	imul	ecx, eax, 5
	mov	edx, DWORD PTR _Grid$[ebp]
	push	ecx
	movss	xmm0, DWORD PTR [edx+ecx+96]
	movss	DWORD PTR [esp], xmm0
	mov	eax, 4
	shl	eax, 2
	mov	ecx, DWORD PTR _Grid$[ebp]
	push	ecx
	movss	xmm0, DWORD PTR [ecx+eax+96]
	movss	DWORD PTR [esp], xmm0
	mov	edx, 12					; 0000000cH
	imul	eax, edx, 5
	add	eax, DWORD PTR _Grid$[ebp]
	push	eax
	mov	ecx, 12					; 0000000cH
	shl	ecx, 2
	add	ecx, DWORD PTR _Grid$[ebp]
	push	ecx
	lea	edx, DWORD PTR $T8[ebp]
	push	edx
	call	?VertexInterp@@YA?AUVec3f@@ABU1@0MM@Z	; VertexInterp
	add	esp, 20					; 00000014H
	push	eax
	mov	eax, 12					; 0000000cH
	shl	eax, 2
	lea	ecx, DWORD PTR _VertexList$[ebp+eax]
	call	??4Vec3f@@QAEAAU0@ABU0@@Z		; Vec3f::operator=
$LN27@Polygonise:
; Line 341
	mov	eax, DWORD PTR _CubeIndex$[ebp]
	mov	ecx, DWORD PTR ?edgeTable@@3PAHA[eax*4]
	and	ecx, 32					; 00000020H
	je	SHORT $LN28@Polygonise
; Line 342
	mov	eax, 4
	imul	ecx, eax, 6
	mov	edx, DWORD PTR _Grid$[ebp]
	push	ecx
	movss	xmm0, DWORD PTR [edx+ecx+96]
	movss	DWORD PTR [esp], xmm0
	mov	eax, 4
	imul	ecx, eax, 5
	mov	edx, DWORD PTR _Grid$[ebp]
	push	ecx
	movss	xmm0, DWORD PTR [edx+ecx+96]
	movss	DWORD PTR [esp], xmm0
	mov	eax, 12					; 0000000cH
	imul	ecx, eax, 6
	add	ecx, DWORD PTR _Grid$[ebp]
	push	ecx
	mov	edx, 12					; 0000000cH
	imul	eax, edx, 5
	add	eax, DWORD PTR _Grid$[ebp]
	push	eax
	lea	ecx, DWORD PTR $T7[ebp]
	push	ecx
	call	?VertexInterp@@YA?AUVec3f@@ABU1@0MM@Z	; VertexInterp
	add	esp, 20					; 00000014H
	push	eax
	mov	edx, 12					; 0000000cH
	imul	eax, edx, 5
	lea	ecx, DWORD PTR _VertexList$[ebp+eax]
	call	??4Vec3f@@QAEAAU0@ABU0@@Z		; Vec3f::operator=
$LN28@Polygonise:
; Line 344
	mov	eax, DWORD PTR _CubeIndex$[ebp]
	mov	ecx, DWORD PTR ?edgeTable@@3PAHA[eax*4]
	and	ecx, 64					; 00000040H
	je	SHORT $LN29@Polygonise
; Line 345
	mov	eax, 4
	imul	ecx, eax, 7
	mov	edx, DWORD PTR _Grid$[ebp]
	push	ecx
	movss	xmm0, DWORD PTR [edx+ecx+96]
	movss	DWORD PTR [esp], xmm0
	mov	eax, 4
	imul	ecx, eax, 6
	mov	edx, DWORD PTR _Grid$[ebp]
	push	ecx
	movss	xmm0, DWORD PTR [edx+ecx+96]
	movss	DWORD PTR [esp], xmm0
	mov	eax, 12					; 0000000cH
	imul	ecx, eax, 7
	add	ecx, DWORD PTR _Grid$[ebp]
	push	ecx
	mov	edx, 12					; 0000000cH
	imul	eax, edx, 6
	add	eax, DWORD PTR _Grid$[ebp]
	push	eax
	lea	ecx, DWORD PTR $T6[ebp]
	push	ecx
	call	?VertexInterp@@YA?AUVec3f@@ABU1@0MM@Z	; VertexInterp
	add	esp, 20					; 00000014H
	push	eax
	mov	edx, 12					; 0000000cH
	imul	eax, edx, 6
	lea	ecx, DWORD PTR _VertexList$[ebp+eax]
	call	??4Vec3f@@QAEAAU0@ABU0@@Z		; Vec3f::operator=
$LN29@Polygonise:
; Line 347
	mov	eax, DWORD PTR _CubeIndex$[ebp]
	mov	ecx, DWORD PTR ?edgeTable@@3PAHA[eax*4]
	and	ecx, 128				; 00000080H
	je	SHORT $LN30@Polygonise
; Line 348
	mov	eax, 4
	shl	eax, 2
	mov	ecx, DWORD PTR _Grid$[ebp]
	push	ecx
	movss	xmm0, DWORD PTR [ecx+eax+96]
	movss	DWORD PTR [esp], xmm0
	mov	edx, 4
	imul	eax, edx, 7
	mov	ecx, DWORD PTR _Grid$[ebp]
	push	ecx
	movss	xmm0, DWORD PTR [ecx+eax+96]
	movss	DWORD PTR [esp], xmm0
	mov	edx, 12					; 0000000cH
	shl	edx, 2
	add	edx, DWORD PTR _Grid$[ebp]
	push	edx
	mov	eax, 12					; 0000000cH
	imul	ecx, eax, 7
	add	ecx, DWORD PTR _Grid$[ebp]
	push	ecx
	lea	edx, DWORD PTR $T5[ebp]
	push	edx
	call	?VertexInterp@@YA?AUVec3f@@ABU1@0MM@Z	; VertexInterp
	add	esp, 20					; 00000014H
	push	eax
	mov	eax, 12					; 0000000cH
	imul	ecx, eax, 7
	lea	ecx, DWORD PTR _VertexList$[ebp+ecx]
	call	??4Vec3f@@QAEAAU0@ABU0@@Z		; Vec3f::operator=
$LN30@Polygonise:
; Line 350
	mov	eax, DWORD PTR _CubeIndex$[ebp]
	mov	ecx, DWORD PTR ?edgeTable@@3PAHA[eax*4]
	and	ecx, 256				; 00000100H
	je	SHORT $LN31@Polygonise
; Line 351
	mov	eax, 4
	shl	eax, 2
	mov	ecx, DWORD PTR _Grid$[ebp]
	push	ecx
	movss	xmm0, DWORD PTR [ecx+eax+96]
	movss	DWORD PTR [esp], xmm0
	mov	edx, 4
	imul	eax, edx, 0
	mov	ecx, DWORD PTR _Grid$[ebp]
	push	ecx
	movss	xmm0, DWORD PTR [ecx+eax+96]
	movss	DWORD PTR [esp], xmm0
	mov	edx, 12					; 0000000cH
	shl	edx, 2
	add	edx, DWORD PTR _Grid$[ebp]
	push	edx
	mov	eax, 12					; 0000000cH
	imul	ecx, eax, 0
	add	ecx, DWORD PTR _Grid$[ebp]
	push	ecx
	lea	edx, DWORD PTR $T4[ebp]
	push	edx
	call	?VertexInterp@@YA?AUVec3f@@ABU1@0MM@Z	; VertexInterp
	add	esp, 20					; 00000014H
	push	eax
	mov	eax, 12					; 0000000cH
	shl	eax, 3
	lea	ecx, DWORD PTR _VertexList$[ebp+eax]
	call	??4Vec3f@@QAEAAU0@ABU0@@Z		; Vec3f::operator=
$LN31@Polygonise:
; Line 353
	mov	eax, DWORD PTR _CubeIndex$[ebp]
	mov	ecx, DWORD PTR ?edgeTable@@3PAHA[eax*4]
	and	ecx, 512				; 00000200H
	je	SHORT $LN32@Polygonise
; Line 354
	mov	eax, 4
	imul	ecx, eax, 5
	mov	edx, DWORD PTR _Grid$[ebp]
	push	ecx
	movss	xmm0, DWORD PTR [edx+ecx+96]
	movss	DWORD PTR [esp], xmm0
	mov	eax, 4
	shl	eax, 0
	mov	ecx, DWORD PTR _Grid$[ebp]
	push	ecx
	movss	xmm0, DWORD PTR [ecx+eax+96]
	movss	DWORD PTR [esp], xmm0
	mov	edx, 12					; 0000000cH
	imul	eax, edx, 5
	add	eax, DWORD PTR _Grid$[ebp]
	push	eax
	mov	ecx, 12					; 0000000cH
	shl	ecx, 0
	add	ecx, DWORD PTR _Grid$[ebp]
	push	ecx
	lea	edx, DWORD PTR $T3[ebp]
	push	edx
	call	?VertexInterp@@YA?AUVec3f@@ABU1@0MM@Z	; VertexInterp
	add	esp, 20					; 00000014H
	push	eax
	mov	eax, 12					; 0000000cH
	imul	ecx, eax, 9
	lea	ecx, DWORD PTR _VertexList$[ebp+ecx]
	call	??4Vec3f@@QAEAAU0@ABU0@@Z		; Vec3f::operator=
$LN32@Polygonise:
; Line 356
	mov	eax, DWORD PTR _CubeIndex$[ebp]
	mov	ecx, DWORD PTR ?edgeTable@@3PAHA[eax*4]
	and	ecx, 1024				; 00000400H
	je	SHORT $LN33@Polygonise
; Line 357
	mov	eax, 4
	imul	ecx, eax, 6
	mov	edx, DWORD PTR _Grid$[ebp]
	push	ecx
	movss	xmm0, DWORD PTR [edx+ecx+96]
	movss	DWORD PTR [esp], xmm0
	mov	eax, 4
	shl	eax, 1
	mov	ecx, DWORD PTR _Grid$[ebp]
	push	ecx
	movss	xmm0, DWORD PTR [ecx+eax+96]
	movss	DWORD PTR [esp], xmm0
	mov	edx, 12					; 0000000cH
	imul	eax, edx, 6
	add	eax, DWORD PTR _Grid$[ebp]
	push	eax
	mov	ecx, 12					; 0000000cH
	shl	ecx, 1
	add	ecx, DWORD PTR _Grid$[ebp]
	push	ecx
	lea	edx, DWORD PTR $T2[ebp]
	push	edx
	call	?VertexInterp@@YA?AUVec3f@@ABU1@0MM@Z	; VertexInterp
	add	esp, 20					; 00000014H
	push	eax
	mov	eax, 12					; 0000000cH
	imul	ecx, eax, 10
	lea	ecx, DWORD PTR _VertexList$[ebp+ecx]
	call	??4Vec3f@@QAEAAU0@ABU0@@Z		; Vec3f::operator=
$LN33@Polygonise:
; Line 359
	mov	eax, DWORD PTR _CubeIndex$[ebp]
	mov	ecx, DWORD PTR ?edgeTable@@3PAHA[eax*4]
	and	ecx, 2048				; 00000800H
	je	SHORT $LN34@Polygonise
; Line 360
	mov	eax, 4
	imul	ecx, eax, 7
	mov	edx, DWORD PTR _Grid$[ebp]
	push	ecx
	movss	xmm0, DWORD PTR [edx+ecx+96]
	movss	DWORD PTR [esp], xmm0
	mov	eax, 4
	imul	ecx, eax, 3
	mov	edx, DWORD PTR _Grid$[ebp]
	push	ecx
	movss	xmm0, DWORD PTR [edx+ecx+96]
	movss	DWORD PTR [esp], xmm0
	mov	eax, 12					; 0000000cH
	imul	ecx, eax, 7
	add	ecx, DWORD PTR _Grid$[ebp]
	push	ecx
	mov	edx, 12					; 0000000cH
	imul	eax, edx, 3
	add	eax, DWORD PTR _Grid$[ebp]
	push	eax
	lea	ecx, DWORD PTR $T1[ebp]
	push	ecx
	call	?VertexInterp@@YA?AUVec3f@@ABU1@0MM@Z	; VertexInterp
	add	esp, 20					; 00000014H
	push	eax
	mov	edx, 12					; 0000000cH
	imul	eax, edx, 11
	lea	ecx, DWORD PTR _VertexList$[ebp+eax]
	call	??4Vec3f@@QAEAAU0@ABU0@@Z		; Vec3f::operator=
$LN34@Polygonise:
; Line 363
	mov	eax, DWORD PTR _NewVertexCount$[ebp]
	mov	DWORD PTR [eax], 0
; Line 364
	mov	DWORD PTR _i$16[ebp], 0
	jmp	SHORT $LN4@Polygonise
$LN2@Polygonise:
	mov	eax, DWORD PTR _i$16[ebp]
	add	eax, 1
	mov	DWORD PTR _i$16[ebp], eax
$LN4@Polygonise:
	cmp	DWORD PTR _i$16[ebp], 12		; 0000000cH
	jae	SHORT $LN3@Polygonise
; Line 365
	mov	eax, DWORD PTR _i$16[ebp]
	mov	BYTE PTR _LocalRemap$[ebp+eax], -1
	jmp	SHORT $LN2@Polygonise
$LN3@Polygonise:
; Line 367
	mov	DWORD PTR _i$15[ebp], 0
	jmp	SHORT $LN7@Polygonise
$LN5@Polygonise:
	mov	eax, DWORD PTR _i$15[ebp]
	add	eax, 1
	mov	DWORD PTR _i$15[ebp], eax
$LN7@Polygonise:
	mov	eax, DWORD PTR _CubeIndex$[ebp]
	shl	eax, 4
	mov	ecx, DWORD PTR _i$15[ebp]
	movsx	edx, BYTE PTR ?triTable@@3PAY0BA@DA[eax+ecx]
	cmp	edx, -1
	je	$LN6@Polygonise
; Line 369
	mov	eax, DWORD PTR _CubeIndex$[ebp]
	shl	eax, 4
	mov	ecx, DWORD PTR _i$15[ebp]
	movsx	edx, BYTE PTR ?triTable@@3PAY0BA@DA[eax+ecx]
	movsx	eax, BYTE PTR _LocalRemap$[ebp+edx]
	cmp	eax, -1
	jne	SHORT $LN35@Polygonise
; Line 371
	mov	eax, DWORD PTR _CubeIndex$[ebp]
	shl	eax, 4
	mov	ecx, DWORD PTR _i$15[ebp]
	movsx	edx, BYTE PTR ?triTable@@3PAY0BA@DA[eax+ecx]
	imul	eax, edx, 12
	lea	ecx, DWORD PTR _VertexList$[ebp+eax]
	push	ecx
	mov	edx, DWORD PTR _NewVertexCount$[ebp]
	imul	eax, DWORD PTR [edx], 12
	lea	ecx, DWORD PTR _NewVertexList$[ebp+eax]
	call	??4Vec3f@@QAEAAU0@ABU0@@Z		; Vec3f::operator=
; Line 372
	mov	eax, DWORD PTR _CubeIndex$[ebp]
	shl	eax, 4
	mov	ecx, DWORD PTR _i$15[ebp]
	movsx	edx, BYTE PTR ?triTable@@3PAY0BA@DA[eax+ecx]
	mov	eax, DWORD PTR _NewVertexCount$[ebp]
	mov	cl, BYTE PTR [eax]
	mov	BYTE PTR _LocalRemap$[ebp+edx], cl
; Line 373
	mov	eax, DWORD PTR _NewVertexCount$[ebp]
	mov	ecx, DWORD PTR [eax]
	add	ecx, 1
	mov	edx, DWORD PTR _NewVertexCount$[ebp]
	mov	DWORD PTR [edx], ecx
$LN35@Polygonise:
; Line 375
	jmp	$LN5@Polygonise
$LN6@Polygonise:
; Line 377
	mov	DWORD PTR _i$14[ebp], 0
	jmp	SHORT $LN10@Polygonise
$LN8@Polygonise:
	mov	eax, DWORD PTR _i$14[ebp]
	add	eax, 1
	mov	DWORD PTR _i$14[ebp], eax
$LN10@Polygonise:
	mov	eax, DWORD PTR _NewVertexCount$[ebp]
	mov	ecx, DWORD PTR _i$14[ebp]
	cmp	ecx, DWORD PTR [eax]
	jge	SHORT $LN9@Polygonise
; Line 378
	imul	eax, DWORD PTR _i$14[ebp], 12
	lea	ecx, DWORD PTR _NewVertexList$[ebp+eax]
	push	ecx
	imul	ecx, DWORD PTR _i$14[ebp], 12
	add	ecx, DWORD PTR _Vertices$[ebp]
	call	??4Vec3f@@QAEAAU0@ABU0@@Z		; Vec3f::operator=
; Line 379
	jmp	SHORT $LN8@Polygonise
$LN9@Polygonise:
; Line 381
	mov	DWORD PTR _TriangleCount$[ebp], 0
; Line 382
	mov	DWORD PTR _i$13[ebp], 0
	jmp	SHORT $LN13@Polygonise
$LN11@Polygonise:
	mov	eax, DWORD PTR _i$13[ebp]
	add	eax, 3
	mov	DWORD PTR _i$13[ebp], eax
$LN13@Polygonise:
	mov	eax, DWORD PTR _CubeIndex$[ebp]
	shl	eax, 4
	mov	ecx, DWORD PTR _i$13[ebp]
	movsx	edx, BYTE PTR ?triTable@@3PAY0BA@DA[eax+ecx]
	cmp	edx, -1
	je	$LN12@Polygonise
; Line 383
	mov	eax, DWORD PTR _CubeIndex$[ebp]
	shl	eax, 4
	mov	ecx, DWORD PTR _i$13[ebp]
	movsx	edx, BYTE PTR ?triTable@@3PAY0BA@DA[eax+ecx]
	movsx	eax, BYTE PTR _LocalRemap$[ebp+edx]
	imul	ecx, DWORD PTR _TriangleCount$[ebp], 12
	add	ecx, DWORD PTR _Triangles$[ebp]
	mov	edx, 4
	imul	edx, edx, 0
	mov	DWORD PTR [ecx+edx], eax
; Line 384
	mov	eax, DWORD PTR _CubeIndex$[ebp]
	shl	eax, 4
	mov	ecx, DWORD PTR _i$13[ebp]
	movsx	edx, BYTE PTR ?triTable@@3PAY0BA@DA[eax+ecx+1]
	movsx	eax, BYTE PTR _LocalRemap$[ebp+edx]
	imul	ecx, DWORD PTR _TriangleCount$[ebp], 12
	add	ecx, DWORD PTR _Triangles$[ebp]
	mov	edx, 4
	shl	edx, 0
	mov	DWORD PTR [ecx+edx], eax
; Line 385
	mov	eax, DWORD PTR _CubeIndex$[ebp]
	shl	eax, 4
	mov	ecx, DWORD PTR _i$13[ebp]
	movsx	edx, BYTE PTR ?triTable@@3PAY0BA@DA[eax+ecx+2]
	movsx	eax, BYTE PTR _LocalRemap$[ebp+edx]
	imul	ecx, DWORD PTR _TriangleCount$[ebp], 12
	add	ecx, DWORD PTR _Triangles$[ebp]
	mov	edx, 4
	shl	edx, 1
	mov	DWORD PTR [ecx+edx], eax
; Line 386
	mov	eax, DWORD PTR _TriangleCount$[ebp]
	add	eax, 1
	mov	DWORD PTR _TriangleCount$[ebp], eax
; Line 387
	jmp	$LN11@Polygonise
$LN12@Polygonise:
; Line 389
	mov	eax, DWORD PTR _TriangleCount$[ebp]
$LN1@Polygonise:
; Line 390
	push	edx
	mov	ecx, ebp
	push	eax
	lea	edx, DWORD PTR $LN41@Polygonise
	call	@_RTC_CheckStackVars@8
	pop	eax
	pop	edx
	pop	edi
	pop	esi
	pop	ebx
	mov	ecx, DWORD PTR __$ArrayPad$[ebp]
	xor	ecx, ebp
	call	@__security_check_cookie@4
	add	esp, 1036				; 0000040cH
	cmp	ebp, esp
	call	__RTC_CheckEsp
	mov	esp, ebp
	pop	ebp
	ret	0
	npad	2
$LN41@Polygonise:
	DD	3
	DD	$LN40@Polygonise
$LN40@Polygonise:
	DD	-176					; ffffff50H
	DD	144					; 00000090H
	DD	$LN37@Polygonise
	DD	-328					; fffffeb8H
	DD	144					; 00000090H
	DD	$LN38@Polygonise
	DD	-348					; fffffea4H
	DD	12					; 0000000cH
	DD	$LN39@Polygonise
$LN39@Polygonise:
	DB	76					; 0000004cH
	DB	111					; 0000006fH
	DB	99					; 00000063H
	DB	97					; 00000061H
	DB	108					; 0000006cH
	DB	82					; 00000052H
	DB	101					; 00000065H
	DB	109					; 0000006dH
	DB	97					; 00000061H
	DB	112					; 00000070H
	DB	0
$LN38@Polygonise:
	DB	78					; 0000004eH
	DB	101					; 00000065H
	DB	119					; 00000077H
	DB	86					; 00000056H
	DB	101					; 00000065H
	DB	114					; 00000072H
	DB	116					; 00000074H
	DB	101					; 00000065H
	DB	120					; 00000078H
	DB	76					; 0000004cH
	DB	105					; 00000069H
	DB	115					; 00000073H
	DB	116					; 00000074H
	DB	0
$LN37@Polygonise:
	DB	86					; 00000056H
	DB	101					; 00000065H
	DB	114					; 00000072H
	DB	116					; 00000074H
	DB	101					; 00000065H
	DB	120					; 00000078H
	DB	76					; 0000004cH
	DB	105					; 00000069H
	DB	115					; 00000073H
	DB	116					; 00000074H
	DB	0
?Polygonise@@YAHAAUGRIDCELL@@PAUTriMeshFace@@AAHPAUVec3f@@@Z ENDP ; Polygonise
_TEXT	ENDS
; Function compile flags: /Odtp /RTCsu /ZI
;	COMDAT ??G@YA?AUVec3f@@ABU0@0@Z
_TEXT	SEGMENT
___$ReturnUdt$ = 8					; size = 4
_Left$ = 12						; size = 4
_Right$ = 16						; size = 4
??G@YA?AUVec3f@@ABU0@0@Z PROC				; operator-, COMDAT
; File E:\Docs\Coding_Projects\C++\Computer Graphics\Marching Cubes\Engine\Math\Vec3f.inl
; Line 302
	push	ebp
	mov	ebp, esp
	sub	esp, 192				; 000000c0H
	push	ebx
	push	esi
	push	edi
	lea	edi, DWORD PTR [ebp-192]
	mov	ecx, 48					; 00000030H
	mov	eax, -858993460				; ccccccccH
	rep stosd
; Line 303
	mov	eax, DWORD PTR _Left$[ebp]
	mov	ecx, DWORD PTR _Right$[ebp]
	movss	xmm0, DWORD PTR [eax+8]
	subss	xmm0, DWORD PTR [ecx+8]
	push	ecx
	movss	DWORD PTR [esp], xmm0
	mov	edx, DWORD PTR _Left$[ebp]
	mov	eax, DWORD PTR _Right$[ebp]
	movss	xmm0, DWORD PTR [edx+4]
	subss	xmm0, DWORD PTR [eax+4]
	push	ecx
	movss	DWORD PTR [esp], xmm0
	mov	ecx, DWORD PTR _Left$[ebp]
	mov	edx, DWORD PTR _Right$[ebp]
	movss	xmm0, DWORD PTR [ecx]
	subss	xmm0, DWORD PTR [edx]
	push	ecx
	movss	DWORD PTR [esp], xmm0
	mov	ecx, DWORD PTR ___$ReturnUdt$[ebp]
	call	??0Vec3f@@QAE@MMM@Z			; Vec3f::Vec3f
	mov	eax, DWORD PTR ___$ReturnUdt$[ebp]
; Line 306
	pop	edi
	pop	esi
	pop	ebx
	add	esp, 192				; 000000c0H
	cmp	ebp, esp
	call	__RTC_CheckEsp
	mov	esp, ebp
	pop	ebp
	ret	0
??G@YA?AUVec3f@@ABU0@0@Z ENDP				; operator-
_TEXT	ENDS
; Function compile flags: /Odtp /RTCsu /ZI
;	COMDAT ??H@YA?AUVec3f@@ABU0@0@Z
_TEXT	SEGMENT
___$ReturnUdt$ = 8					; size = 4
_Left$ = 12						; size = 4
_Right$ = 16						; size = 4
??H@YA?AUVec3f@@ABU0@0@Z PROC				; operator+, COMDAT
; File E:\Docs\Coding_Projects\C++\Computer Graphics\Marching Cubes\Engine\Math\Vec3f.inl
; Line 295
	push	ebp
	mov	ebp, esp
	sub	esp, 192				; 000000c0H
	push	ebx
	push	esi
	push	edi
	lea	edi, DWORD PTR [ebp-192]
	mov	ecx, 48					; 00000030H
	mov	eax, -858993460				; ccccccccH
	rep stosd
; Line 296
	mov	eax, DWORD PTR _Left$[ebp]
	mov	ecx, DWORD PTR _Right$[ebp]
	movss	xmm0, DWORD PTR [eax+8]
	addss	xmm0, DWORD PTR [ecx+8]
	push	ecx
	movss	DWORD PTR [esp], xmm0
	mov	edx, DWORD PTR _Left$[ebp]
	mov	eax, DWORD PTR _Right$[ebp]
	movss	xmm0, DWORD PTR [edx+4]
	addss	xmm0, DWORD PTR [eax+4]
	push	ecx
	movss	DWORD PTR [esp], xmm0
	mov	ecx, DWORD PTR _Left$[ebp]
	mov	edx, DWORD PTR _Right$[ebp]
	movss	xmm0, DWORD PTR [ecx]
	addss	xmm0, DWORD PTR [edx]
	push	ecx
	movss	DWORD PTR [esp], xmm0
	mov	ecx, DWORD PTR ___$ReturnUdt$[ebp]
	call	??0Vec3f@@QAE@MMM@Z			; Vec3f::Vec3f
	mov	eax, DWORD PTR ___$ReturnUdt$[ebp]
; Line 299
	pop	edi
	pop	esi
	pop	ebx
	add	esp, 192				; 000000c0H
	cmp	ebp, esp
	call	__RTC_CheckEsp
	mov	esp, ebp
	pop	ebp
	ret	0
??H@YA?AUVec3f@@ABU0@0@Z ENDP				; operator+
_TEXT	ENDS
; Function compile flags: /Odtp /RTCsu /ZI
;	COMDAT ??D@YA?AUVec3f@@MABU0@@Z
_TEXT	SEGMENT
___$ReturnUdt$ = 8					; size = 4
_Left$ = 12						; size = 4
_Right$ = 16						; size = 4
??D@YA?AUVec3f@@MABU0@@Z PROC				; operator*, COMDAT
; File E:\Docs\Coding_Projects\C++\Computer Graphics\Marching Cubes\Engine\Math\Vec3f.inl
; Line 281
	push	ebp
	mov	ebp, esp
	sub	esp, 192				; 000000c0H
	push	ebx
	push	esi
	push	edi
	lea	edi, DWORD PTR [ebp-192]
	mov	ecx, 48					; 00000030H
	mov	eax, -858993460				; ccccccccH
	rep stosd
; Line 282
	mov	eax, DWORD PTR _Right$[ebp]
	movss	xmm0, DWORD PTR [eax+8]
	mulss	xmm0, DWORD PTR _Left$[ebp]
	push	ecx
	movss	DWORD PTR [esp], xmm0
	mov	ecx, DWORD PTR _Right$[ebp]
	movss	xmm0, DWORD PTR [ecx+4]
	mulss	xmm0, DWORD PTR _Left$[ebp]
	push	ecx
	movss	DWORD PTR [esp], xmm0
	mov	edx, DWORD PTR _Right$[ebp]
	movss	xmm0, DWORD PTR [edx]
	mulss	xmm0, DWORD PTR _Left$[ebp]
	push	ecx
	movss	DWORD PTR [esp], xmm0
	mov	ecx, DWORD PTR ___$ReturnUdt$[ebp]
	call	??0Vec3f@@QAE@MMM@Z			; Vec3f::Vec3f
	mov	eax, DWORD PTR ___$ReturnUdt$[ebp]
; Line 285
	pop	edi
	pop	esi
	pop	ebx
	add	esp, 192				; 000000c0H
	cmp	ebp, esp
	call	__RTC_CheckEsp
	mov	esp, ebp
	pop	ebp
	ret	0
??D@YA?AUVec3f@@MABU0@@Z ENDP				; operator*
_TEXT	ENDS
; Function compile flags: /Odtp /RTCsu /ZI
;	COMDAT ??4Vec3f@@QAEAAU0@ABU0@@Z
_TEXT	SEGMENT
_this$ = -8						; size = 4
_V$ = 8							; size = 4
??4Vec3f@@QAEAAU0@ABU0@@Z PROC				; Vec3f::operator=, COMDAT
; _this$ = ecx
; File E:\Docs\Coding_Projects\C++\Computer Graphics\Marching Cubes\Engine\Math\Vec3f.inl
; Line 44
	push	ebp
	mov	ebp, esp
	sub	esp, 204				; 000000ccH
	push	ebx
	push	esi
	push	edi
	push	ecx
	lea	edi, DWORD PTR [ebp-204]
	mov	ecx, 51					; 00000033H
	mov	eax, -858993460				; ccccccccH
	rep stosd
	pop	ecx
	mov	DWORD PTR _this$[ebp], ecx
; Line 45
	mov	eax, DWORD PTR _this$[ebp]
	mov	ecx, DWORD PTR _V$[ebp]
	mov	edx, DWORD PTR [ecx]
	mov	DWORD PTR [eax], edx
; Line 46
	mov	eax, DWORD PTR _this$[ebp]
	mov	ecx, DWORD PTR _V$[ebp]
	mov	edx, DWORD PTR [ecx+4]
	mov	DWORD PTR [eax+4], edx
; Line 47
	mov	eax, DWORD PTR _this$[ebp]
	mov	ecx, DWORD PTR _V$[ebp]
	mov	edx, DWORD PTR [ecx+8]
	mov	DWORD PTR [eax+8], edx
; Line 48
	mov	eax, DWORD PTR _this$[ebp]
; Line 49
	pop	edi
	pop	esi
	pop	ebx
	mov	esp, ebp
	pop	ebp
	ret	4
??4Vec3f@@QAEAAU0@ABU0@@Z ENDP				; Vec3f::operator=
_TEXT	ENDS
; Function compile flags: /Odtp /RTCsu /ZI
;	COMDAT ??0Vec3f@@QAE@MMM@Z
_TEXT	SEGMENT
_this$ = -8						; size = 4
__x$ = 8						; size = 4
__y$ = 12						; size = 4
__z$ = 16						; size = 4
??0Vec3f@@QAE@MMM@Z PROC				; Vec3f::Vec3f, COMDAT
; _this$ = ecx
; File E:\Docs\Coding_Projects\C++\Computer Graphics\Marching Cubes\Engine\Math\Vec3f.inl
; Line 23
	push	ebp
	mov	ebp, esp
	sub	esp, 204				; 000000ccH
	push	ebx
	push	esi
	push	edi
	push	ecx
	lea	edi, DWORD PTR [ebp-204]
	mov	ecx, 51					; 00000033H
	mov	eax, -858993460				; ccccccccH
	rep stosd
	pop	ecx
	mov	DWORD PTR _this$[ebp], ecx
; Line 24
	mov	eax, DWORD PTR _this$[ebp]
	movss	xmm0, DWORD PTR __x$[ebp]
	movss	DWORD PTR [eax], xmm0
; Line 25
	mov	eax, DWORD PTR _this$[ebp]
	movss	xmm0, DWORD PTR __y$[ebp]
	movss	DWORD PTR [eax+4], xmm0
; Line 26
	mov	eax, DWORD PTR _this$[ebp]
	movss	xmm0, DWORD PTR __z$[ebp]
	movss	DWORD PTR [eax+8], xmm0
; Line 27
	mov	eax, DWORD PTR _this$[ebp]
	pop	edi
	pop	esi
	pop	ebx
	mov	esp, ebp
	pop	ebp
	ret	12					; 0000000cH
??0Vec3f@@QAE@MMM@Z ENDP				; Vec3f::Vec3f
_TEXT	ENDS
; Function compile flags: /Odtp /RTCsu /ZI
;	COMDAT ??0Vec3f@@QAE@XZ
_TEXT	SEGMENT
_this$ = -8						; size = 4
??0Vec3f@@QAE@XZ PROC					; Vec3f::Vec3f, COMDAT
; _this$ = ecx
; File E:\Docs\Coding_Projects\C++\Computer Graphics\Marching Cubes\Engine\Math\Vec3f.inl
; Line 11
	push	ebp
	mov	ebp, esp
	sub	esp, 204				; 000000ccH
	push	ebx
	push	esi
	push	edi
	push	ecx
	lea	edi, DWORD PTR [ebp-204]
	mov	ecx, 51					; 00000033H
	mov	eax, -858993460				; ccccccccH
	rep stosd
	pop	ecx
	mov	DWORD PTR _this$[ebp], ecx
; Line 13
	mov	eax, DWORD PTR _this$[ebp]
	pop	edi
	pop	esi
	pop	ebx
	mov	esp, ebp
	pop	ebp
	ret	0
??0Vec3f@@QAE@XZ ENDP					; Vec3f::Vec3f
_TEXT	ENDS
; Function compile flags: /Odtp /RTCsu /ZI
;	COMDAT ?__empty_global_delete@@YAXPAXI@Z
_TEXT	SEGMENT
___formal$ = 8						; size = 4
___formal$ = 12						; size = 4
?__empty_global_delete@@YAXPAXI@Z PROC			; __empty_global_delete, COMDAT
; File E:\Docs\Coding_Projects\C++\Computer Graphics\Marching Cubes\MarchingCubes\MarchingCubes.cpp
; Line 400
	push	ebp
	mov	ebp, esp
	sub	esp, 192				; 000000c0H
	push	ebx
	push	esi
	push	edi
	lea	edi, DWORD PTR [ebp-192]
	mov	ecx, 48					; 00000030H
	mov	eax, -858993460				; ccccccccH
	rep stosd
	pop	edi
	pop	esi
	pop	ebx
	mov	esp, ebp
	pop	ebp
	ret	0
?__empty_global_delete@@YAXPAXI@Z ENDP			; __empty_global_delete
_TEXT	ENDS
; Function compile flags: /Odtp /RTCsu /ZI
;	COMDAT ?__empty_global_delete@@YAXPAX@Z
_TEXT	SEGMENT
___formal$ = 8						; size = 4
?__empty_global_delete@@YAXPAX@Z PROC			; __empty_global_delete, COMDAT
; File E:\Docs\Coding_Projects\C++\Computer Graphics\Marching Cubes\MarchingCubes\MarchingCubes.cpp
; Line 400
	push	ebp
	mov	ebp, esp
	sub	esp, 192				; 000000c0H
	push	ebx
	push	esi
	push	edi
	lea	edi, DWORD PTR [ebp-192]
	mov	ecx, 48					; 00000030H
	mov	eax, -858993460				; ccccccccH
	rep stosd
	pop	edi
	pop	esi
	pop	ebx
	mov	esp, ebp
	pop	ebp
	ret	0
?__empty_global_delete@@YAXPAX@Z ENDP			; __empty_global_delete
_TEXT	ENDS
; Function compile flags: /Odtp /RTCsu /ZI
;	COMDAT ??_H@YGXPAXIIP6EPAX0@Z@Z
_TEXT	SEGMENT
tv67 = -200						; size = 4
tv66 = -196						; size = 4
___t$ = 8						; size = 4
___s$ = 12						; size = 4
___n$ = 16						; size = 4
___f$ = 20						; size = 4
??_H@YGXPAXIIP6EPAX0@Z@Z PROC				; `vector constructor iterator', COMDAT
	push	ebp
	mov	ebp, esp
	sub	esp, 200				; 000000c8H
	push	ebx
	push	esi
	push	edi
	lea	edi, DWORD PTR [ebp-200]
	mov	ecx, 50					; 00000032H
	mov	eax, -858993460				; ccccccccH
	rep stosd
$LN2@vector:
	mov	eax, DWORD PTR ___n$[ebp]
	mov	DWORD PTR tv66[ebp], eax
	mov	ecx, DWORD PTR ___n$[ebp]
	sub	ecx, 1
	mov	DWORD PTR ___n$[ebp], ecx
	cmp	DWORD PTR tv66[ebp], 0
	jbe	SHORT $LN5@vector
	mov	DWORD PTR tv67[ebp], 1
	jmp	SHORT $LN6@vector
$LN5@vector:
	mov	DWORD PTR tv67[ebp], 0
$LN6@vector:
	cmp	DWORD PTR tv67[ebp], 0
	je	SHORT $LN1@vector
	mov	esi, esp
	mov	ecx, DWORD PTR ___t$[ebp]
	call	DWORD PTR ___f$[ebp]
	cmp	esi, esp
	call	__RTC_CheckEsp
	mov	eax, DWORD PTR ___t$[ebp]
	add	eax, DWORD PTR ___s$[ebp]
	mov	DWORD PTR ___t$[ebp], eax
	jmp	SHORT $LN2@vector
$LN1@vector:
	pop	edi
	pop	esi
	pop	ebx
	add	esp, 200				; 000000c8H
	cmp	ebp, esp
	call	__RTC_CheckEsp
	mov	esp, ebp
	pop	ebp
	ret	16					; 00000010H
??_H@YGXPAXIIP6EPAX0@Z@Z ENDP				; `vector constructor iterator'
_TEXT	ENDS
END
